(lp0
Vhttp://www.linkedin.com/pub/nick-mckeown/6/271/490
p1
aVhttp://www.linkedin.com/pub/wojciech-jawor/24/4a4/524
p2
aVhttp://fi.linkedin.com/pub/markku-juntti/13/750/578
p3
aVhttp://ca.linkedin.com/pub/alan-hu/12/3a7/a78
p4
aVhttp://uk.linkedin.com/pub/josef-kittler/4/76a/202
p5
aVhttp://ie.linkedin.com/in/stefandecker
p6
aVhttp://ie.linkedin.com/in/stefandecker
p7
aVhttp://www.linkedin.com/in/gangwang1
p8
aVhttp://uk.linkedin.com/pub/julian-miller/5/214/19
p9
aVhttp://www.linkedin.com/pub/zhen-liu/8/a92/2a5
p10
aVhttp://www.linkedin.com/pub/zhen-liu/8/a92/2a5
p11
aVhttp://www.linkedin.com/pub/norimichi-ukita/a/4a9/915
p12
aVhttp://uk.linkedin.com/pub/andrew-howes/a/696/96b
p13
aVhttp://cn.linkedin.com/pub/feng-zhou/21/4b0/b79
p14
aVhttp://uk.linkedin.com/pub/phil-mcminn/28/a39/6ba
p15
aVhttp://cn.linkedin.com/pub/gang-wang/2a/36/642
p16
aVhttp://www.linkedin.com/pub/henry-fuchs/11/699/873
p17
aVhttp://www.linkedin.com/pub/insup-lee/5/3bb/445
p18
aVhttp://www.linkedin.com/pub/bo-xu/11/688/b5a
p19
aVhttp://www.linkedin.com/pub/andrew-ng/4b/31/a48
p20
aVhttp://in.linkedin.com/pub/indrajit-bhattacharya/4/254/792
p21
aVhttp://www.linkedin.com/in/appenz
p22
aVhttp://www.linkedin.com/in/richardturner
p23
aVhttp://www.linkedin.com/pub/qiang-wang/5/3b9/590
p24
aVhttp://www.linkedin.com/pub/yong-zhang/8/8a1/73b
p25
aVhttp://sg.linkedin.com/pub/weisi-lin/23/137/663
p26
aVhttp://www.linkedin.com/pub/leo-mark/b/154/660
p27
aVhttp://cn.linkedin.com/pub/jinghai-rao/1/586/15b
p28
aVhttp://www.linkedin.com/pub/amit-mehrotra/5/248/58a
p29
aVhttp://cn.linkedin.com/in/yvonnezhangli
p30
aVhttp://cn.linkedin.com/in/yvonnezhangli
p31
aVhttp://cn.linkedin.com/in/yvonnezhangli
p32
aVhttp://ie.linkedin.com/pub/johannes-leveling/8/169/318
p33
aVhttp://gr.linkedin.com/pub/panayiotis-tsaparas/44/498/5b6
p34
aVhttp://www.linkedin.com/pub/henry-baird/15/667/31b
p35
aVhttp://www.linkedin.com/pub/shuguang-cui/3/b9b/ba2
p36
aVhttp://www.linkedin.com/pub/richard-enbody/1/797/421
p37
aVhttp://cn.linkedin.com/pub/feng-tian/29/8a0/565
p38
aVhttp://www.linkedin.com/pub/branimir-boguraev/7/385/814
p39
aVhttp://il.linkedin.com/pub/yehuda-koren/7/614/856
p40
aVhttp://cn.linkedin.com/pub/weining-qian/15/79b/b45
p41
aVhttp://ca.linkedin.com/pub/oded-berman/4/785/901
p42
aVhttp://www.linkedin.com/pub/raghu-ramakrishnan/3/973/5
p43
aVhttp://be.linkedin.com/pub/marcin-kaminski/2/5a1/ba6
p44
aVhttp://www.linkedin.com/pub/max-welling/10/839/4a7
p45
aVhttp://cn.linkedin.com/in/zhiyuanliu
p46
aVhttp://gr.linkedin.com/in/chorianopoulos
p47
aVhttp://www.linkedin.com/in/dingzhou
p48
aVhttp://www.linkedin.com/pub/ning-zhang/25/801/165
p49
aVhttp://www.linkedin.com/pub/julie-dorsey/4/411/52
p50
aVhttp://www.linkedin.com/pub/blair-macintyre/2/734/13b
p51
aVhttp://www.linkedin.com/pub/hong-jiang/6/43/b8a
p52
aVhttp://il.linkedin.com/in/eladyomtov
p53
aVhttp://cn.linkedin.com/pub/yongguang-zhang/7/a70/a43
p54
aVhttp://www.linkedin.com/pub/suresh-venkatasubramanian/1/b75/233
p55
aVhttp://www.linkedin.com/pub/yong-guan/a/b80/9a7
p56
aVhttp://tw.linkedin.com/pub/chun-ting-chou/5/984/752
p57
aVhttp://www.linkedin.com/pub/ye-wang/11/366/62b
p58
aVhttp://gr.linkedin.com/pub/dimitrios-ververidis/20/7a5/516
p59
aVhttp://ca.linkedin.com/in/changli
p60
aVhttp://www.linkedin.com/in/christianposse
p61
aVhttp://www.linkedin.com/in/clemenskerer
p62
aVhttp://in.linkedin.com/pub/durga-prasad-muni/8/652/78
p63
aVhttp://www.linkedin.com/pub/eli-upfal/6/21b/509
p64
aVhttp://www.linkedin.com/pub/dongming-jiang/2/492/76a
p65
aVhttp://uk.linkedin.com/pub/peter-coveney/14/745/b42
p66
aVhttp://au.linkedin.com/pub/soon-kyeong-kim/a/42b/37b
p67
aVhttp://www.linkedin.com/pub/yong-guan/b/b4a/893
p68
aVhttp://www.linkedin.com/pub/hui-hsien-chou/11/b00/b10
p69
aVhttp://www.linkedin.com/pub/xiaowei-li/6/181/982
p70
aVhttp://www.linkedin.com/pub/wayne-piekarski/1b/5b6/897
p71
aVhttp://sg.linkedin.com/pub/chen-khong-tham/5a/aa2/2b3
p72
aVhttp://www.linkedin.com/pub/ross-whitaker/6/28a/445
p73
aVhttp://www.linkedin.com/pub/tarak-gandhi/18/a43/992
p74
aVhttp://www.linkedin.com/in/davidandrzejewski
p75
aVhttp://www.linkedin.com/pub/francine-chen/9/28b/309
p76
aVhttp://ca.linkedin.com/pub/richard-volpe/13/69a/845
p77
aVhttp://www.linkedin.com/pub/richard-parent/19/41/556
p78
aVhttp://www.linkedin.com/pub/lin-xiao/a/a0/105
p79
aVhttp://pk.linkedin.com/in/drsohaibkhan
p80
aVhttp://in.linkedin.com/pub/kunal-verma/24/325/145
p81
aVhttp://www.linkedin.com/pub/hany-ammar/2a/145/182
p82
aVhttp://www.linkedin.com/pub/chunyuan-liao/4/b15/b5a
p83
aVhttp://www.linkedin.com/pub/carol-tenopir/3/a79/4b7
p84
aVhttp://uk.linkedin.com/pub/vadim-lozin/2a/900/32b
p85
aVhttp://www.linkedin.com/in/ufayyad
p86
aVhttp://uk.linkedin.com/pub/jens-groth/0/672/a95
p87
aVhttp://www.linkedin.com/pub/liang-cheng/9/78a/903
p88
aVhttp://cn.linkedin.com/pub/zhi-wang/1a/907/b15
p89
aVhttp://www.linkedin.com/pub/pradip-bose/16/8a0/6b1
p90
aVhttp://www.linkedin.com/pub/janos-simon/6/116/754
p91
aVhttp://uk.linkedin.com/pub/keith-cheverst/17/951/1b
p92
aVhttp://in.linkedin.com/pub/diptikalyan-saha/4/1a8/4ab
p93
aVhttp://il.linkedin.com/pub/adrian-segall/13/353/701
p94
aVhttp://www.linkedin.com/pub/xin-wang/6/aba/a13?_mSplash=1
p95
aVhttp://www.linkedin.com/in/chrisnodder
p96
aVhttp://in.linkedin.com/in/iyerarunshankar
p97
aVhttp://be.linkedin.com/pub/jean-luc-hainaut/4/64/7a7
p98
aVhttp://www.linkedin.com/pub/hari-sundaram/0/641/82
p99
aVhttp://www.linkedin.com/pub/janos-simon/4/254/156
p100
aVhttp://uk.linkedin.com/pub/keith-cheverst/23/883/938
p101
aVhttp://au.linkedin.com/pub/tony-sahama/19/b35/445
p102
aVhttp://au.linkedin.com/pub/john-thangarajah/1/88a/988
p103
aVhttp://au.linkedin.com/pub/lloyd-allison/5/796/3b7
p104
aVhttp://www.linkedin.com/pub/henny-sipma/1/53b/58b
p105
aVhttp://ca.linkedin.com/pub/prabhakar-ragde/29/98b/9a9
p106
aVhttp://www.linkedin.com/pub/luo-si/4/5a5/a
p107
aVhttp://www.linkedin.com/pub/ming-hua/4/64a/258
p108
aVhttp://www.linkedin.com/pub/brian-curless/3/b29/73a
p109
aVhttp://ie.linkedin.com/pub/owen-conlan/13/82b/49a
p110
aVhttp://www.linkedin.com/pub/kristen-lefevre/10/284/260
p111
aVhttp://sg.linkedin.com/pub/sim-heng-ong/14/274/bb1
p112
aVhttp://cn.linkedin.com/pub/si-wu/18/454/628
p113
aVhttp://www.linkedin.com/pub/shumin-zhai/4/2a5/78b
p114
aVhttp://www.linkedin.com/pub/sohaib-khan/38/a7/89
p115
aVhttp://www.linkedin.com/pub/yoav-freund/5/231/a2b
p116
aVhttp://www.linkedin.com/pub/carl-fredrik-westin/6/20a/718
p117
aVhttp://il.linkedin.com/pub/oren-kurland/30/338/589
p118
aVhttp://tw.linkedin.com/pub/jeng-shyang-pan/6/ba7/333
p119
aVhttp://uk.linkedin.com/pub/nick-pears/12/703/909
p120
aVhttp://il.linkedin.com/pub/isaac-keslassy/4/449/3b2
p121
aVhttp://gr.linkedin.com/pub/christos-goumopoulos/55/366/4a4
p122
aVhttp://www.linkedin.com/pub/kimmen-sjolander/0/592/98a
p123
aVhttp://www.linkedin.com/pub/james-whittaker/13/878/229
p124
aVhttp://gr.linkedin.com/pub/georgios-lappas/20/3b8/842
p125
aVhttp://cn.linkedin.com/in/taomei
p126
aVhttp://cn.linkedin.com/pub/xin-li/7/746/365
p127
aVhttp://cn.linkedin.com/pub/xin-li/23/151/97
p128
aVhttp://www.linkedin.com/pub/france-belanger/5/22/a54
p129
aVhttp://www.linkedin.com/pub/cormac-herley/14/439/76a
p130
aVhttp://www.linkedin.com/pub/roxana-smarandache/3/768/915
p131
aVhttp://www.linkedin.com/in/stevemcc
p132
aVhttp://www.linkedin.com/in/stevemcc
p133
aVhttp://za.linkedin.com/pub/ernest-mnkandla/13/190/ab4
p134
aVhttp://www.linkedin.com/pub/krishnaprasad-thirunarayan/4/a20/11a
p135
aVhttp://www.linkedin.com/pub/terence-tao/6/124/629
p136
aVhttp://www.linkedin.com/pub/terence-tao/6/124/629
p137
aVhttp://uk.linkedin.com/in/szivny
p138
aVhttp://www.linkedin.com/pub/zheng-zhao/7/861/862
p139
aVhttp://www.linkedin.com/pub/lei-ying/9/340/790
p140
aVhttp://www.linkedin.com/pub/dorothy-denning/0/1b5/955
p141
aVhttp://be.linkedin.com/pub/philippe-de-maeyer/a/7b8/b1a
p142
aVhttp://www.linkedin.com/pub/christopher-olston/27/29/5b
p143
aVhttp://ca.linkedin.com/pub/jon-muzio/8/891/4a1
p144
aVhttp://www.linkedin.com/pub/steven-buechler/32/209/a72
p145
aVhttp://uk.linkedin.com/in/andreasplendiani
p146
aVhttp://www.linkedin.com/pub/joanne-yates/19/523/5
p147
aVhttp://www.linkedin.com/pub/david-mutchler/8/928/4
p148
aVhttp://www.linkedin.com/pub/martin-wicke/14/705/a7b
p149
aVhttp://www.linkedin.com/in/wbridewell
p150
aVhttp://il.linkedin.com/pub/uri-yechiali/14/354/27a
p151
aVhttp://www.linkedin.com/pub/mark-zachry/b/a74/447
p152
aVhttp://www.linkedin.com/pub/yan-chen/3/b12/57
p153
aVhttp://www.linkedin.com/pub/glenn-hurlbert/24/766/88
p154
aVhttp://be.linkedin.com/in/jancl
p155
aVhttp://www.linkedin.com/pub/wotao-yin/5/abb/719
p156
aVhttp://www.linkedin.com/pub/leon-stok/26/33/21b
p157
aVhttp://www.linkedin.com/pub/bojan-cukic/0/2b0/152
p158
aVhttp://uk.linkedin.com/pub/maria-petrou/4/320/973
p159
aVhttp://www.linkedin.com/pub/charles-wright/56/524/678
p160
aVhttp://cn.linkedin.com/in/jietangtsinghua
p161
aVhttp://www.linkedin.com/pub/venkat-venkatasubramanian/1a/343/a19
p162
aVhttp://www.linkedin.com/pub/patrick-martin/51/a26/690
p163
aVhttp://www.linkedin.com/in/fengpan
p164
aVhttp://www.linkedin.com/pub/david-notkin/0/282/342
p165
aVhttp://sg.linkedin.com/pub/ivor-tsang/15/5a5/623
p166
aVhttp://www.linkedin.com/pub/anish-das-sarma/2/12/77b
p167
aVhttp://gr.linkedin.com/pub/yannis-stavrakas/5/152/984
p168
aVhttp://uk.linkedin.com/pub/benny-lo/4/491/45
p169
aVhttp://www.linkedin.com/pub/olivia-sheng/12/33/865
p170
aVhttp://www.linkedin.com/pub/stephanie-seneff/8/495/9a0
p171
aVhttp://www.linkedin.com/pub/linyuan-lu/36/816/487
p172
aVhttp://www.linkedin.com/pub/bongki-moon/5/a7a/141
p173
aVhttp://www.linkedin.com/pub/xin-li/b/766/709
p174
aVhttp://www.linkedin.com/pub/eyal-even-dar/20/253/116
p175
aVhttp://uk.linkedin.com/pub/dan-chalmers/5/aa5/51b
p176
aVhttp://www.linkedin.com/pub/vivek-sarkar/5/b2a/8b6
p177
aVhttp://uk.linkedin.com/pub/youssef-hamadi/3/a03/778
p178
aVhttp://www.linkedin.com/pub/arthur-karshmer/a/644/579
p179
aVhttp://il.linkedin.com/pub/iris-reinhartz-berger/17/127/334
p180
aVhttp://gr.linkedin.com/pub/vassilis-christophides/5/136/b73
p181
aVhttp://www.linkedin.com/pub/sumit-gulwani/32/a06/23a
p182
aVhttp://www.linkedin.com/pub/sergio-guadarrama/9/437/172
p183
aVhttp://hk.linkedin.com/pub/amine-bermak/a/b93/a0
p184
aVhttp://uk.linkedin.com/pub/jon-whittle/b/344/b53
p185
aVhttp://il.linkedin.com/pub/sivan-toledo/4/213/505
p186
aVhttp://uk.linkedin.com/pub/sethu-vijayakumar/5/381/9b0
p187
aVhttp://cn.linkedin.com/pub/li-liu/32/87a/494
p188
aVhttp://ca.linkedin.com/pub/daniela-damian/37/800/3b0
p189
aVhttp://in.linkedin.com/pub/arunesh-mishra/4b/a09/389
p190
aVhttp://www.linkedin.com/pub/roberta-klatzky/20/277/b17
p191
aVhttp://ca.linkedin.com/pub/mark-giesbrecht/50/327/b70
p192
aVhttp://www.linkedin.com/pub/ingrid-verbauwhede/3/8a3/37a
p193
aVhttp://ca.linkedin.com/pub/david-toman/4b/342/911
p194
aVhttp://hk.linkedin.com/pub/man-wai-mak/34/89b/93
p195
aVhttp://www.linkedin.com/pub/yajun-wang/b/731/689
p196
aVhttp://www.linkedin.com/in/sergeymelnik
p197
aVhttp://www.linkedin.com/pub/liangjun-zhang/17/aa4/151
p198
aVhttp://www.linkedin.com/pub/jian-wu/b/604/a30
p199
aVhttp://www.linkedin.com/pub/jian-wu/12/222/316
p200
aVhttp://ca.linkedin.com/in/shahidzkhan
p201
aVhttp://www.linkedin.com/pub/guoqiang-pan/6/308/139
p202
aVhttp://www.linkedin.com/pub/gaetano-borriello/2/b02/731
p203
aVhttp://au.linkedin.com/pub/michael-hitchens/20/259/a5b
p204
aVhttp://au.linkedin.com/pub/michael-hitchens/5a/3b3/531
p205
aVhttp://www.linkedin.com/pub/haim-gaifman/17/86/47a
p206
aVhttp://www.linkedin.com/pub/alfred-aho/5/89a/860
p207
aVhttp://au.linkedin.com/pub/judy-kay/4/40/b41
p208
aVhttp://www.linkedin.com/pub/jonathan-connell/10/b05/7b8
p209
aVhttp://cn.linkedin.com/pub/jun-zhu/14/578/311
p210
aVhttp://www.linkedin.com/pub/jun-zhu/16/204/97a
p211
aVhttp://www.linkedin.com/pub/kishan-mehrotra/54/7b/556
p212
aVhttp://ae.linkedin.com/in/parunkumar
p213
aVhttp://sg.linkedin.com/pub/yue-wang/15/453/2a
p214
aVhttp://www.linkedin.com/pub/jie-wu/2b/b92/966
p215
aVhttp://www.linkedin.com/pub/xinan-tang/1/259/9b4
p216
aVhttp://ir.linkedin.com/pub/mahmood-fazlali/9/999/b6b
p217
aVhttp://bg.linkedin.com/pub/vania-dimitrova/12/267/758
p218
aVhttp://ir.linkedin.com/pub/hamid-beigy/37/205/b7b
p219
aVhttp://www.linkedin.com/pub/linda-shapiro/1b/104/616
p220
aVhttp://www.linkedin.com/pub/jin-li/8/a8a/451
p221
aVhttp://www.linkedin.com/pub/jin-li/5/3ab/a53
p222
aVhttp://www.linkedin.com/pub/jin-li/4/78a/232
p223
aVhttp://www.linkedin.com/pub/maribeth-back/0/29/b2b
p224
aVhttp://www.linkedin.com/pub/vivek-mhatre/5/a53/525
p225
aVhttp://www.linkedin.com/pub/kaushik-roy/7/b33/b29
p226
aVhttp://www.linkedin.com/pub/kaushik-roy/7/b33/b29
p227
aVhttp://www.linkedin.com/pub/lipyeow-lim/5/66/725
p228
aVhttp://www.linkedin.com/pub/nitin-indurkhya/59/776/112
p229
aVhttp://www.linkedin.com/in/sylvainpion
p230
aVhttp://www.linkedin.com/pub/manish-bhardwaj/a/58/64b
p231
aVhttp://www.linkedin.com/pub/cormac-flanagan/0/177/b03
p232
aVhttp://be.linkedin.com/in/pieterbekaert
p233
aVhttp://www.linkedin.com/pub/margus-veanes/4/354/b96
p234
aVhttp://www.linkedin.com/in/shoukatali
p235
aVhttp://www.linkedin.com/pub/john-maccormick/4/922/a7
p236
aVhttp://www.linkedin.com/pub/milind-naphade/6/981/a91
p237
aVhttp://cn.linkedin.com/in/ccliyan
p238
aVhttp://www.linkedin.com/pub/xing-xu/7/989/b1a
p239
aVhttp://www.linkedin.com/pub/hamid-pirahesh/10/680/383
p240
aVhttp://www.linkedin.com/pub/raj-jain/0/735/140
p241
aVhttp://www.linkedin.com/pub/raj-jain/0/735/140
p242
aVhttp://www.linkedin.com/pub/raj-jain/0/735/140
p243
aVhttp://www.linkedin.com/pub/raj-jain/0/735/140
p244
aVhttp://www.linkedin.com/pub/murat-azizoglu/12/194/291
p245
aVhttp://ca.linkedin.com/pub/sven-dickinson/11/1ab/15
p246
aVhttp://www.linkedin.com/pub/mineo-takai/26/909/659
p247
aVhttp://www.linkedin.com/pub/george-karabatis/14/550/468
p248
aVhttp://www.linkedin.com/pub/naren-ramakrishnan/1/256/b3
p249
aVhttp://ca.linkedin.com/pub/t-w-williams/8/921/597
p250
aVhttp://ca.linkedin.com/pub/t-w-williams/8/921/597
p251
aVhttp://ca.linkedin.com/pub/t-w-williams/8/921/597
p252
aVhttp://www.linkedin.com/pub/pete-wyckoff/5/97/bab
p253
aVhttp://www.linkedin.com/pub/eric-roberts/7/971/894
p254
aVhttp://au.linkedin.com/pub/pablo-moscato/2b/5/4
p255
aVhttp://uk.linkedin.com/pub/simon-marlow/4/849/73
p256
aVhttp://ca.linkedin.com/pub/marc-feeley/14/582/45a
p257
aVhttp://www.linkedin.com/pub/song-cao/1b/207/b05
p258
aVhttp://in.linkedin.com/pub/rajeev-kumar/53/b68/476
p259
aVhttp://www.linkedin.com/pub/danny-soroker/4/429/b26
p260
aVhttp://be.linkedin.com/pub/marc-gyssens/10/232/417
p261
aVhttp://www.linkedin.com/in/sachinagarwal25
p262
aVhttp://ca.linkedin.com/pub/hong-chuan-yang/15/233/857
p263
aVhttp://www.linkedin.com/in/jarrar
p264
aVhttp://www.linkedin.com/pub/john-platt/43/a01/469
p265
aVhttp://www.linkedin.com/pub/hong-jian-lai/45/119/6b3
p266
aVhttp://www.linkedin.com/pub/yang-yu/5/0/ba8
p267
aVhttp://www.linkedin.com/pub/wei-jiang/1b/a0b/109
p268
aVhttp://ca.linkedin.com/in/pgorniak
p269
aVhttp://ir.linkedin.com/pub/hamid-beigy/4b/260/898
p270
aVhttp://ca.linkedin.com/pub/hadi-kharaghani/27/58b/3ba
p271
aVhttp://www.linkedin.com/pub/emir-pasalic/4/504/216
p272
aVhttp://ca.linkedin.com/pub/jamshid-beheshti/32/615/a42
p273
aVhttp://www.linkedin.com/pub/ward-whitt/2a/344/b91
p274
aVhttp://www.linkedin.com/pub/jonathan-foote/24/607/1a8
p275
aVhttp://ie.linkedin.com/pub/nic-wilson/5/388/715
p276
aVhttp://www.linkedin.com/pub/uzi-vishkin/0/7b1/6b7
p277
aVhttp://www.linkedin.com/pub/ambarish-goswami/37/597/547
p278
aVhttp://uk.linkedin.com/pub/donia-scott/1/960/654
p279
aVhttp://www.linkedin.com/pub/abbas-nayebi/51/230/2a9
p280
aVhttp://il.linkedin.com/pub/gideon-dror/9/ab3/9a
p281
aVhttp://uk.linkedin.com/pub/david-jones/5/139/845
p282
aVhttp://www.linkedin.com/pub/hod-lipson/9/818/401
p283
aVhttp://uk.linkedin.com/pub/ken-kahn/5/a22/997
p284
aVhttp://in.linkedin.com/pub/nomesh-bolia/6/996/810
p285
aVhttp://www.linkedin.com/pub/sriram-chellappan/51/b80/20b
p286
aVhttp://www.linkedin.com/pub/hamid-pirahesh/8/851/215
p287
aVhttp://in.linkedin.com/pub/pabitra-mitra/5/823/802
p288
aVhttp://ca.linkedin.com/pub/wendy-powley/10/444/58b
p289
aVhttp://ca.linkedin.com/pub/n-balakrishnan/21/4b0/632
p290
aVhttp://www.linkedin.com/pub/amarnath-gupta/14/260/740
p291
aVhttp://be.linkedin.com/pub/maurice-bruynooghe/6/74a/5bb
p292
aVhttp://tw.linkedin.com/pub/shang-hong-lai/b/3a0/491
p293
aVhttp://au.linkedin.com/pub/michael-hitchens/33/233/226
p294
aVhttp://uk.linkedin.com/pub/sebastian-danicic/34/128/118
p295
aVhttp://uk.linkedin.com/pub/ullrich-hustadt/a/946/730
p296
aVhttp://uk.linkedin.com/pub/andrew-zisserman/5/a34/386
p297
aVhttp://cn.linkedin.com/pub/jin-li/7/92a/a53
p298
aVhttp://uk.linkedin.com/pub/miles-osborne/5/824/3a9
p299
aVhttp://www.linkedin.com/pub/ashish-goel/0/32/155
p300
aVhttp://uk.linkedin.com/pub/yaochu-jin/19/575/873
p301
aVhttp://www.linkedin.com/pub/mudhakar-srivatsa/a/8a4/b42
p302
aVhttp://uk.linkedin.com/pub/david-budgen/7/ba5/b58
p303
aVhttp://uk.linkedin.com/pub/gavin-lowe/1b/473/a77
p304
aVhttp://hk.linkedin.com/pub/jiaya-jia/33/b83/46b
p305
aVhttp://ua.linkedin.com/pub/sergey-melnik/4a/377/876
p306
aVhttp://uk.linkedin.com/pub/mark-sandler/0/9b4/a68
p307
aVhttp://sg.linkedin.com/pub/feng-bao/13/289/399
p308
aVhttp://tw.linkedin.com/pub/pei-chann-chang/15/678/22b
p309
aVhttp://cn.linkedin.com/pub/xiaofei-liao/5b/82/14b
p310
aVhttp://www.linkedin.com/pub/yang-yang/10/b26/1b9
p311
aVhttp://www.linkedin.com/pub/yang-yang/10/b26/1b9
p312
aVhttp://www.linkedin.com/pub/silviu-cucerzan/3/a21/245
p313
aVhttp://www.linkedin.com/pub/assaf-kfoury/22/19a/287
p314
aVhttp://ca.linkedin.com/pub/itay-mayrose/17/2ab/a23
p315
aVhttp://sg.linkedin.com/pub/abhik-roychoudhury/9/21a/175
p316
aVhttp://www.linkedin.com/pub/lantian-zheng/10/238/802
p317
aVhttp://www.linkedin.com/pub/wendi-heinzelman/17/772/65a
p318
aVhttp://www.linkedin.com/pub/wendi-heinzelman/17/772/65a
p319
aVhttp://in.linkedin.com/in/krishnaprasadchitrapura
p320
aVhttp://www.linkedin.com/pub/andrew-selle/3/a6b/849
p321
aVhttp://www.linkedin.com/pub/emine-yilmaz/7/b93/978?_mSplash=1
p322
aVhttp://www.linkedin.com/pub/emine-yilmaz/7/b93/978
p323
aVhttp://ee.linkedin.com/pub/varmo-vene/5/237/3ab
p324
aVhttp://www.linkedin.com/in/rsrikant
p325
aVhttp://www.linkedin.com/in/olivierchapelle
p326
aVhttp://www.linkedin.com/in/zhang97
p327
aVhttp://www.linkedin.com/pub/zheng-zhang/11/711/131
p328
aVhttp://www.linkedin.com/in/zhang97
p329
aVhttp://www.linkedin.com/pub/zheng-zhang/11/711/131
p330
aVhttp://www.linkedin.com/pub/isabelle-bichindaritz/5/289/844
p331
aVhttp://www.linkedin.com/pub/gideon-mann/12/a29/223
p332
aVhttp://www.linkedin.com/pub/qi-he/15/72a/5a2
p333
aVhttp://www.linkedin.com/pub/qi-he/15/72a/5a2
p334
aVhttp://www.linkedin.com/pub/shaojun-wang/17/a05/685
p335
aVhttp://www.linkedin.com/in/yivanov
p336
aVhttp://www.linkedin.com/pub/nick-howgrave-graham/8/214/146
p337
aVhttp://cn.linkedin.com/pub/le-song/43/5ab/205
p338
aVhttp://cn.linkedin.com/pub/xuanjing-huang/9/3b6/a33
p339
aVhttp://www.linkedin.com/pub/brian-smith/6/834/64
p340
aVhttp://cn.linkedin.com/in/littletotoro
p341
aVhttp://www.linkedin.com/in/huangyi7
p342
aVhttp://www.linkedin.com/in/wgrieskamp
p343
aVhttp://www.linkedin.com/pub/anoop-gupta/14/467/53
p344
aVhttp://www.linkedin.com/pub/anoop-gupta/0/432/16a
p345
aVhttp://www.linkedin.com/pub/rao-shen/1/301/63b
p346
aVhttp://www.linkedin.com/in/matthiasnicola
p347
aVhttp://ee.linkedin.com/pub/marlon-dumas/0/971/258
p348
aVhttp://in.linkedin.com/pub/nikhil-bansal/15/10b/5a5
p349
aVhttp://cn.linkedin.com/pub/wei-lai/9/295/964
p350
aVhttp://cn.linkedin.com/pub/wei-lai/9/295/964
p351
aVhttp://www.linkedin.com/pub/ali-mesbah/6/994/234
p352
aVhttp://cn.linkedin.com/pub/baining-guo/4/304/6b4
p353
aVhttp://ca.linkedin.com/in/mdrobinson
p354
aVhttp://www.linkedin.com/pub/jahangir-karimi/9/53b/846
p355
aVhttp://www.linkedin.com/in/chinmayk
p356
aVhttp://www.linkedin.com/pub/songwu-lu/14/649/88b
p357
aVhttp://www.linkedin.com/pub/brett-browning/b/8ab/990
p358
aVhttp://www.linkedin.com/in/johnlcarroll
p359
aVhttp://www.linkedin.com/pub/zhen-li/5/397/6b7
p360
aVhttp://www.linkedin.com/in/dgrstl
p361
aVhttp://www.linkedin.com/in/dgrstl
p362
aVhttp://www.linkedin.com/in/pierobonissone
p363
aVhttp://www.linkedin.com/pub/dahlia-malkhi/5/36a/8b8
p364
aVhttp://www.linkedin.com/pub/michael-muller/6/347/a3a
p365
aVhttp://cn.linkedin.com/pub/xi-zhou/5/687/2b4
p366
aVhttp://www.linkedin.com/pub/gautam-das/b/441/5
p367
aVhttp://il.linkedin.com/pub/noam-slonim/4/583/199
p368
aVhttp://cn.linkedin.com/pub/tao-qin/17/88/65
p369
aVhttp://www.linkedin.com/pub/robert-muth/6/21b/872
p370
aVhttp://www.linkedin.com/pub/carl-pomerance/11/839/b81
p371
aVhttp://www.linkedin.com/pub/leendert-van-doorn/0/170/740
p372
aVhttp://ca.linkedin.com/pub/jinlin-chen/13/b94/7b1
p373
aVhttp://www.linkedin.com/pub/amit-shukla/52/990/a51
p374
aVhttp://si.linkedin.com/pub/sergio-cabello/0/76b/307
p375
aVhttp://www.linkedin.com/pub/henry-schneiderman/8/549/134
p376
aVhttp://cn.linkedin.com/pub/yong-liu/27/885/73b
p377
aVhttp://www.linkedin.com/pub/mandis-beigi/3/793/4b8
p378
aVhttp://www.linkedin.com/pub/ioana-banicescu/4/110/7ab
p379
aVhttp://www.linkedin.com/pub/jeremy-pickens/5/1bb/4b8
p380
aVhttp://www.linkedin.com/in/yuntaojia
p381
aVhttp://ca.linkedin.com/in/mrdiazh
p382
aVhttp://www.linkedin.com/pub/tomaso-poggio/14/b55/605
p383
aVhttp://www.linkedin.com/pub/tomaso-poggio/14/b55/605
p384
aVhttp://www.linkedin.com/pub/daphne-koller/20/3a8/405
p385
aVhttp://www.linkedin.com/pub/albert-ruehli/13/38b/961
p386
aVhttp://www.linkedin.com/pub/lars-erik-holmquist/33/b38/a45
p387
aVhttp://www.linkedin.com/pub/savitha-srinivasan/3/867/339
p388
aVhttp://www.linkedin.com/pub/ergun-akleman/1a/639/2a
p389
aVhttp://cn.linkedin.com/pub/zhi-jin/24/943/827
p390
aVhttp://tw.linkedin.com/pub/chia-wen-lin/18/96b/b02
p391
aVhttp://cn.linkedin.com/pub/xing-wei/24/8a3/29a
p392
aVhttp://www.linkedin.com/pub/xing-wei/27/72a/835
p393
aVhttp://www.linkedin.com/in/liaolin
p394
aVhttp://be.linkedin.com/pub/yolande-berbers/4/3a/14a
p395
aVhttp://il.linkedin.com/pub/ari-rappoport/4/420/449
p396
aVhttp://www.linkedin.com/pub/young-han-kim/11/805/450
p397
aVhttp://www.linkedin.com/pub/olga-kosheleva/8/257/442
p398
aVhttp://cn.linkedin.com/pub/taifeng-wang/37/831/617
p399
aVhttp://cn.linkedin.com/pub/zhi-hua-zhou/4/b2a/2a3
p400
aVhttp://www.linkedin.com/pub/dong-wang/8/13b/197
p401
aVhttp://www.linkedin.com/pub/james-theiler/5/1b7/506
p402
aVhttp://www.linkedin.com/pub/marcelo-kallmann/4/504/134
p403
aVhttp://www.linkedin.com/pub/douglas-cenzer/2a/6a7/572
p404
aVhttp://ca.linkedin.com/pub/frederic-guichard/10/414/352
p405
aVhttp://www.linkedin.com/pub/gang-luo/8/a99/7b3
p406
aVhttp://uk.linkedin.com/pub/emine-yilmaz/9/4b/13
p407
aVhttp://tw.linkedin.com/pub/farn-wang/30/10/2a1
p408
aVhttp://www.linkedin.com/pub/benjamin-kuipers/14/632/486
p409
aVhttp://cn.linkedin.com/pub/jian-tao-sun/6/56a/9b7
p410
aVhttp://au.linkedin.com/pub/longbing-cao/5/b94/35a
p411
aVhttp://fi.linkedin.com/pub/jari-nurmi/0/b41/9b5
p412
aVhttp://www.linkedin.com/pub/sanjay-agrawal/0/291/b21
p413
aVhttp://www.linkedin.com/pub/shuhui-yang/6/1a1/342
p414
aVhttp://www.linkedin.com/pub/ryen-white/5/814/a10
p415
aVhttp://sg.linkedin.com/pub/peilin-zhao/57/74b/27a
p416
aVhttp://tw.linkedin.com/pub/hsu-chun-yen/49/2b3/69a
p417
aVhttp://www.linkedin.com/pub/junghee-lim/17/3aa/529
p418
aVhttp://www.linkedin.com/pub/anoop-gupta/a/61b/422
p419
aVhttp://www.linkedin.com/pub/alon-altman/4/597/924
p420
aVhttp://uk.linkedin.com/pub/mike-surridge/4/898/a89
p421
aVhttp://be.linkedin.com/pub/koen-vanhoof/6/6aa/533
p422
aVhttp://www.linkedin.com/pub/eugene-eberbach/28/482/521
p423
aVhttp://cn.linkedin.com/pub/lei-hu/15/518/570
p424
aVhttp://in.linkedin.com/pub/savitha-srinivasan/5/6ba/57a
p425
aVhttp://sg.linkedin.com/pub/zhu-ji/35/188/177
p426
aVhttp://ca.linkedin.com/pub/bernard-stepien/4/507/381
p427
aVhttp://ca.linkedin.com/pub/ivan-stojmenovic/4/210/326
p428
aVhttp://www.linkedin.com/pub/gavin-sherlock/1/5a9/16b
p429
aVhttp://in.linkedin.com/pub/dipanjan-chakraborty/57/43a/1a9
p430
aVhttp://uk.linkedin.com/pub/andy-wellings/5/323/758
p431
aVhttp://cn.linkedin.com/pub/jin-liang/13/37/48a
p432
aVhttp://cn.linkedin.com/pub/jin-liang/25/aba/5a0
p433
aVhttp://www.linkedin.com/pub/jim-gemmell/0/b10/636
p434
aVhttp://www.linkedin.com/pub/zhen-li/5/397/6b7
p435
aVhttp://nz.linkedin.com/pub/cristian-s-calude/b/701/191
p436
aVhttp://gr.linkedin.com/pub/nikos-fakotakis/27/a04/510
p437
aVhttp://cn.linkedin.com/pub/zhi-jin/28/209/1b1
p438
aVhttp://cn.linkedin.com/pub/zhi-jin/28/209/1b1
p439
aVhttp://fi.linkedin.com/pub/guoying-zhao/39/8ab/b6a
p440
aVhttp://sg.linkedin.com/pub/kwok-yan-lam/17/5aa/777
p441
aVhttp://www.linkedin.com/pub/michael-kishinevsky/6/540/8b9
p442
aVhttp://ir.linkedin.com/pub/massoud-babaie-zadeh/11/831/818
p443
aVhttp://uk.linkedin.com/pub/amanda-clare/12/840/288
p444
aVhttp://gr.linkedin.com/pub/maria-virvou/6/6b2/689
p445
aVhttp://cn.linkedin.com/pub/fang-liu/30/299/53b
p446
aVhttp://ca.linkedin.com/pub/pierre-hansen/38/24a/904
p447
aVhttp://cn.linkedin.com/pub/hao-yin/18/b72/682
p448
aVhttp://www.linkedin.com/pub/ingo-wald/6/249/318
p449
aVhttp://www.linkedin.com/pub/victor-prybutok/7/b78/2a5
p450
aVhttp://www.linkedin.com/pub/yoram-singer/33/173/186
p451
aVhttp://cn.linkedin.com/in/jackyxu98
p452
aVhttp://cn.linkedin.com/in/jackyxu98
p453
aVhttp://cn.linkedin.com/in/jackyxu98
p454
aVhttp://cn.linkedin.com/in/jackyxu98
p455
aVhttp://cn.linkedin.com/in/jackyxu98
p456
aVhttp://cn.linkedin.com/in/jackyxu98
p457
aVhttp://cn.linkedin.com/in/jackyxu98
p458
aVhttp://cn.linkedin.com/in/jackyxu98
p459
aVhttp://cn.linkedin.com/in/jackyxu98
p460
aVhttp://cn.linkedin.com/in/jackyxu98
p461
aVhttp://cn.linkedin.com/in/jackyxu98
p462
aVhttp://cn.linkedin.com/in/weihuang001
p463
aVhttp://cn.linkedin.com/in/weihuang001
p464
aVhttp://www.linkedin.com/pub/mohsen-bayati/7/886/44
p465
aVhttp://www.linkedin.com/pub/andrey-balmin/5/9a3/293
p466
aVhttp://www.linkedin.com/pub/thuy-t-le/21/485/96b
p467
aVhttp://www.linkedin.com/pub/yu-hen-hu/b/9b4/3b9
p468
aVhttp://www.linkedin.com/pub/ralf-bundschuh/27/4b6/937
p469
aVhttp://www.linkedin.com/pub/mark-oskin/b/190/172
p470
aVhttp://in.linkedin.com/in/amitagar
p471
aVhttp://www.linkedin.com/in/dtunkelang
p472
aVhttp://www.linkedin.com/in/banavar
p473
aVhttp://www.linkedin.com/pub/ming-ting-sun/5/870/436
p474
aVhttp://www.linkedin.com/pub/nicolas-tsingos/3/97b/4b4
p475
aVhttp://www.linkedin.com/pub/zhang-hongwei/11/19/805
p476
aVhttp://www.linkedin.com/pub/zhong-shao/4/b75/545
p477
aVhttp://www.linkedin.com/pub/zhao-zhang/34/2ba/b6a
p478
aVhttp://www.linkedin.com/pub/tanja-schultz/0/65/943
p479
aVhttp://uk.linkedin.com/pub/john-derrick/17/89b/b7a
p480
aVhttp://www.linkedin.com/pub/kai-wei-chang/40/390/412
p481
aVhttp://www.linkedin.com/pub/feihui-li/14/64a/223
p482
aVhttp://www.linkedin.com/pub/rajiv-ramaswami/4/570/b36
p483
aVhttp://www.linkedin.com/pub/batya-friedman/7/213/61a
p484
aVhttp://www.linkedin.com/in/hamidsavoj
p485
aVhttp://uk.linkedin.com/pub/erik-geelhoed/4/144/b63
p486
aVhttp://ca.linkedin.com/in/kazimasudulalam
p487
aVhttp://www.linkedin.com/pub/tilak-agerwala/25/160/899
p488
aVhttp://www.linkedin.com/pub/alberto-avritzer/7/5b1/216
p489
aVhttp://www.linkedin.com/in/jeffsutherland
p490
aVhttp://www.linkedin.com/pub/kuo-chen-chou/16/142/865
p491
aVhttp://www.linkedin.com/in/cantupaz
p492
aVhttp://www.linkedin.com/pub/guy-lebanon/1/836/1ba
p493
aVhttp://ca.linkedin.com/pub/yuhong-yan/a/9ab/76a
p494
aVhttp://www.linkedin.com/pub/xin-yuan/5/5b3/a45
p495
aVhttp://www.linkedin.com/pub/xin-yuan/5/5b3/a45
p496
aVhttp://ca.linkedin.com/pub/wieslaw-kubiak/5b/660/37a
p497
aVhttp://www.linkedin.com/pub/ewa-deelman/28/334/445
p498
aVhttp://il.linkedin.com/pub/ronny-lempel/5/567/83a
p499
aVhttp://uk.linkedin.com/pub/fabio-cuzzolin/28/1a9/b48
p500
aVhttp://www.linkedin.com/pub/martin-morf/12/257/4a
p501
aVhttp://cn.linkedin.com/pub/bo-gao/25/988/381
p502
aVhttp://www.linkedin.com/pub/andreas-koschan/6/8b5/956
p503
aVhttp://www.linkedin.com/pub/xenofon-koutsoukos/13/344/711
p504
aVhttp://cn.linkedin.com/pub/jian-chen/47/508/64a
p505
aVhttp://cn.linkedin.com/pub/jian-chen/7/927/a70
p506
aVhttp://www.linkedin.com/pub/jian-chen/24/b35/4a1
p507
aVhttp://www.linkedin.com/pub/jian-li/9/129/408
p508
aVhttp://www.linkedin.com/pub/mahmoud-naghshineh/23/917/600
p509
aVhttp://www.linkedin.com/pub/xiaoqiao-meng/3/a04/358
p510
aVhttp://www.linkedin.com/pub/mary-jane-irwin/4/a19/823
p511
aVhttp://www.linkedin.com/pub/alok-choudhary/41/b14/b96
p512
aVhttp://www.linkedin.com/pub/alok-choudhary/5/7bb/71
p513
aVhttp://www.linkedin.com/pub/martin-wattenberg/20/401/3bb
p514
aVhttp://www.linkedin.com/pub/haibin-ling/5/b0b/a29
p515
aVhttp://ca.linkedin.com/pub/pierre-mckenzie/7/963/138
p516
aVhttp://www.linkedin.com/pub/nevenka-dimitrova/4/64/8a8
p517
aVhttp://www.linkedin.com/in/rsram10
p518
aVhttp://www.linkedin.com/in/rsram10
p519
aVhttp://tw.linkedin.com/pub/chung-hsien-kuo/41/980/10b
p520
aVhttp://www.linkedin.com/pub/shuo-chen/28/a23/69a
p521
aVhttp://www.linkedin.com/pub/aranyak-mehta/4a/98b/130
p522
aVhttp://www.linkedin.com/pub/richard-pollack/b/a24/544
p523
aVhttp://www.linkedin.com/pub/krishna-bharat/5a/180/a1a
p524
aVhttp://www.linkedin.com/in/xshua
p525
aVhttp://sg.linkedin.com/pub/ryohei-nakatsu/a/4b8/607
p526
aVhttp://www.linkedin.com/pub/martin-zinkevich/40/835/555
p527
aVhttp://tw.linkedin.com/pub/miin-shen-yang/32/56a/45a
p528
aVhttp://www.linkedin.com/pub/john-blitzer/5/606/425
p529
aVhttp://cn.linkedin.com/pub/zhihua-wang/28/a4b/214
p530
aVhttp://www.linkedin.com/pub/kumar-chellapilla/2/549/59b
p531
aVhttp://www.linkedin.com/in/randomwalker
p532
aVhttp://www.linkedin.com/pub/mikko-siponen/5/486/820
p533
aVhttp://www.linkedin.com/in/sergeyberezin
p534
aVhttp://tw.linkedin.com/pub/sy-yen-kuo/b/482/68a
p535
aVhttp://fi.linkedin.com/pub/reino-kurki-suonio/24/904/6b8
p536
aVhttp://www.linkedin.com/pub/maryam-alavi/5a/578/155
p537
aVhttp://cn.linkedin.com/pub/chengqing-zong/8/925/254
p538
aVhttp://www.linkedin.com/in/sudiptasengupta
p539
aVhttp://in.linkedin.com/pub/anindya-basu/2a/398/b98
p540
aVhttp://www.linkedin.com/in/violapaul
p541
aVhttp://www.linkedin.com/in/violapaul
p542
aVhttp://www.linkedin.com/pub/yu-zhang/5/417/146
p543
aVhttp://cn.linkedin.com/in/dazzlezhang
p544
aVhttp://www.linkedin.com/in/bzhai
p545
aVhttp://ca.linkedin.com/in/blaylock
p546
aVhttp://in.linkedin.com/in/sameepmehta
p547
aVhttp://www.linkedin.com/in/perkowitz
p548
aVhttp://www.linkedin.com/pub/haifeng-qian/6/9b0/532
p549
aVhttp://in.linkedin.com/in/vasuvarma
p550
aVhttp://www.linkedin.com/pub/danyel-fisher/8/a25/a94
p551
aVhttp://www.linkedin.com/pub/vladimir-shpilrain/15/120/b72
p552
aVhttp://www.linkedin.com/pub/maurice-herlihy/5/886/188
p553
aVhttp://www.linkedin.com/pub/martin-margala/8/b20/243
p554
aVhttp://www.linkedin.com/pub/ningfang-mi/15/229/ab0
p555
aVhttp://sg.linkedin.com/pub/aixin-sun/22/566/430
p556
aVhttp://www.linkedin.com/pub/andrian-marcus/22/608/325
p557
aVhttp://be.linkedin.com/pub/tom-brijs/7/28/185
p558
aVhttp://www.linkedin.com/pub/hui-ma/16/17a/44
p559
aVhttp://www.linkedin.com/pub/xiaohu-guo/1b/3a4/273
p560
aVhttp://uk.linkedin.com/pub/huma-lodhi/2a/318/ab3
p561
aVhttp://sg.linkedin.com/pub/wee-sun-lee/3b/344/96
p562
aVhttp://www.linkedin.com/pub/soura-dasgupta/27/b25/b02
p563
aVhttp://www.linkedin.com/pub/ding-liu/6/5b8/233
p564
aVhttp://www.linkedin.com/pub/daniel-sorin/4/56a/ab0
p565
aVhttp://il.linkedin.com/pub/nahum-kiryati/4/a9a/171
p566
aVhttp://www.linkedin.com/pub/manuel-laguna/b/692/570
p567
aVhttp://ca.linkedin.com/pub/jeffrey-shallit/4/293/ba1
p568
aVhttp://www.linkedin.com/pub/roxana-girju/4/803/40
p569
aVhttp://be.linkedin.com/pub/marie-francine-moens/6/5a5/817
p570
aVhttp://www.linkedin.com/pub/lance-glasser/2/aa7/b23
p571
aVhttp://uk.linkedin.com/pub/majid-mirmehdi/33/3a6/a10
p572
aVhttp://www.linkedin.com/pub/andrea-montanari/52/2a9/412
p573
aVhttp://www.linkedin.com/pub/kwan-liu-ma/7/8a9/b19
p574
aVhttp://uk.linkedin.com/pub/zhiguo-ding/58/532/371
p575
aVhttp://gr.linkedin.com/pub/haris-baltzakis/30/759/96a
p576
aVhttp://uk.linkedin.com/pub/amos-storkey/b/90/b20
p577
aVhttp://www.linkedin.com/pub/pierre-moulin/a/2bb/656
p578
aVhttp://www.linkedin.com/pub/an-zhu/4/234/570
p579
aVhttp://ca.linkedin.com/pub/laurence-t-yang/19/32/306
p580
aVhttp://ca.linkedin.com/pub/jiangchuan-liu/5/55b/623
p581
aVhttp://www.linkedin.com/pub/nithya-ramanathan/20/a43/2ab
p582
aVhttp://www.linkedin.com/pub/john-kececioglu/a/801/227
p583
aVhttp://www.linkedin.com/pub/andrew-tomkins/0/87/713
p584
aVhttp://www.linkedin.com/pub/jonathan-graehl/4/512/b35
p585
aVhttp://www.linkedin.com/pub/ding-liu/7/3ab/7a8
p586
aVhttp://www.linkedin.com/pub/ding-liu/1b/b30/108
p587
aVhttp://ie.linkedin.com/pub/josef-van-genabith/12/952/7a4
p588
aVhttp://gr.linkedin.com/pub/evaggelia-pitoura/31/189/112
p589
aVhttp://www.linkedin.com/pub/bo-pang/52/3a5/541
p590
aVhttp://za.linkedin.com/pub/pieter-kritzinger/0/449/75a
p591
aVhttp://www.linkedin.com/pub/xin-yuan/24/997/79a
p592
aVhttp://www.linkedin.com/pub/martin-morf/12/261/91
p593
aVhttp://in.linkedin.com/pub/kanak-agarwal/16/a14/6
p594
aVhttp://www.linkedin.com/pub/hui-yang/3/966/b25
p595
aVhttp://sg.linkedin.com/pub/shonali-krishnaswamy/4/220/b53
p596
aVhttp://cn.linkedin.com/pub/lei-wang/13/243/207
p597
aVhttp://cn.linkedin.com/pub/jian-chen/3/8a2/b71
p598
aVhttp://www.linkedin.com/pub/yefeng-zheng/1/564/bb4
p599
aVhttp://au.linkedin.com/pub/amitava-datta/5/542/994
p600
aVhttp://il.linkedin.com/pub/peretz-shoval/5/6bb/3b2
p601
aVhttp://www.linkedin.com/pub/jason-lawrence/9/b43/8bb
p602
aVhttp://ca.linkedin.com/pub/peter-marbach/5/838/958
p603
aVhttp://www.linkedin.com/pub/vladimir-zadorozhny/6/142/290
p604
aVhttp://sg.linkedin.com/pub/tulika-mitra/3/181/663
p605
aVhttp://www.linkedin.com/pub/shuhong-gao/18/3ba/5a7
p606
aVhttp://www.linkedin.com/pub/russell-tessier/6/2b2/843
p607
aVhttp://cn.linkedin.com/pub/tie-yan-liu/9/172/972
p608
aVhttp://uk.linkedin.com/pub/harith-alani/9/739/534
p609
aVhttp://www.linkedin.com/pub/hongyuan-zha/3/b39/48b
p610
aVhttp://fi.linkedin.com/pub/heikki-keskustalo/3a/27a/201
p611
aVhttp://www.linkedin.com/pub/ashton-anderson/11/6b8/a50
p612
aVhttp://www.linkedin.com/pub/teresa-przytycka/14/928/243
p613
aVhttp://il.linkedin.com/pub/shmuel-katz/5/713/737
p614
aVhttp://www.linkedin.com/pub/goce-trajcevski/19/18/578
p615
aVhttp://www.linkedin.com/pub/jian-zhang/1/ab2/573
p616
aVhttp://www.linkedin.com/pub/bin-li/b/a4b/186
p617
aVhttp://www.linkedin.com/pub/ming-zhao/31/b91/455
p618
aVhttp://www.linkedin.com/pub/fan-li/7/564/675
p619
aVhttp://www.linkedin.com/pub/feng-zhu/21/b83/16a
p620
aVhttp://www.linkedin.com/pub/feng-zhu/21/b83/16a
p621
aVhttp://www.linkedin.com/pub/gregor-von-laszewski/4/109/b64
p622
aVhttp://ca.linkedin.com/pub/parke-godfrey/9/706/73
p623
aVhttp://www.linkedin.com/pub/c-lee-giles/0/a0/823
p624
aVhttp://www.linkedin.com/in/eligoldberg
p625
aVhttp://www.linkedin.com/pub/lauri-karttunen/6/968/b61
p626
aVhttp://www.linkedin.com/in/gmarketos
p627
aVhttp://www.linkedin.com/pub/vivek-narasayya/29/147/382
p628
aVhttp://www.linkedin.com/pub/mark-cutkosky/21/634/11b
p629
aVhttp://www.linkedin.com/pub/mitch-cherniack/2/940/bb7
p630
aVhttp://cn.linkedin.com/pub/yang-liu/7/590/97b
p631
aVhttp://www.linkedin.com/pub/trent-jaeger/5/254/353
p632
aVhttp://www.linkedin.com/pub/manimaran-govindarasu/12/99/789
p633
aVhttp://cn.linkedin.com/pub/dan-shen/13/330/140
p634
aVhttp://in.linkedin.com/pub/anshul-gupta/3/b57/b14
p635
aVhttp://www.linkedin.com/pub/roger-chiang/8/242/841
p636
aVhttp://cn.linkedin.com/in/yqsong
p637
aVhttp://be.linkedin.com/in/steinaerts
p638
aVhttp://www.linkedin.com/pub/david-millen/24/235/80
p639
aVhttp://www.linkedin.com/pub/atul-prakash/4/9a4/872
p640
aVhttp://www.linkedin.com/pub/vivek-pai/9/554/5a0
p641
aVhttp://gr.linkedin.com/pub/christos-zaroliagis/4/175/200
p642
aVhttp://www.linkedin.com/pub/david-heckerman/3b/8b7/9ba
p643
aVhttp://www.linkedin.com/pub/ioana-roxana-stanoi/1a/4a9/6b2
p644
aVhttp://www.linkedin.com/in/songllin
p645
aVhttp://www.linkedin.com/pub/thomas-reichherzer/9/2a0/ab
p646
aVhttp://www.linkedin.com/pub/bruce-char/37/854/643
p647
aVhttp://www.linkedin.com/pub/ali-jadbabaie/7/2a8/922
p648
aVhttp://in.linkedin.com/in/gmanish
p649
aVhttp://www.linkedin.com/in/mefayad
p650
aVhttp://cn.linkedin.com/in/bianjn
p651
aVhttp://www.linkedin.com/pub/gary-klein/15/a9/90b
p652
aVhttp://www.linkedin.com/pub/holly-yanco/13/183/590
p653
aVhttp://www.linkedin.com/pub/shipra-agrawal/4/5a/654
p654
aVhttp://www.linkedin.com/pub/shipra-agrawal/7/2b5/8a4
p655
aVhttp://www.linkedin.com/pub/brian-scassellati/7/212/470
p656
aVhttp://www.linkedin.com/in/goldengrichardiii
p657
aVhttp://uk.linkedin.com/in/whchin
p658
aVhttp://www.linkedin.com/in/josdebruijn
p659
aVhttp://www.linkedin.com/pub/landon-cox/3/736/672
p660
aVhttp://www.linkedin.com/in/dariasorokina
p661
aVhttp://ca.linkedin.com/pub/aijun-an/51/9bb/914
p662
aVhttp://www.linkedin.com/pub/feng-ding/13/b07/967
p663
aVhttp://www.linkedin.com/pub/joshua-goodman/0/765/986
p664
aVhttp://www.linkedin.com/pub/nina-mishra/48/57a/900
p665
aVhttp://uk.linkedin.com/pub/bernardo-cuenca-grau/6/41b/990
p666
aVhttp://www.linkedin.com/pub/ion-muslea/10/32a/b46
p667
aVhttp://www.linkedin.com/pub/hugh-watson/4/61b/aa5
p668
aVhttp://www.linkedin.com/pub/vanja-josifovski/1/802/b25
p669
aVhttp://au.linkedin.com/pub/colin-enticott/36/785/78a
p670
aVhttp://www.linkedin.com/pub/alberto-riva/10/181/189
p671
aVhttp://www.linkedin.com/pub/david-dill/4/152/6b
p672
aVhttp://www.linkedin.com/pub/anindya-ghose/3/47/821
p673
aVhttp://www.linkedin.com/pub/melanie-mitchell/6/4a/8a
p674
aVhttp://www.linkedin.com/pub/judea-pearl/34/44b/625
p675
aVhttp://cn.linkedin.com/pub/dong-zhang/13/a92/99b
p676
aVhttp://cn.linkedin.com/pub/dong-zhang/13/a92/99b
p677
aVhttp://au.linkedin.com/in/grahamjwilliams
p678
aVhttp://sg.linkedin.com/in/cloudinnovations
p679
aVhttp://www.linkedin.com/pub/prasad-jayanti/36/342/741
p680
aVhttp://ca.linkedin.com/pub/jie-sun/39/738/45b
p681
aVhttp://ca.linkedin.com/pub/jie-sun/39/738/45b
p682
aVhttp://www.linkedin.com/pub/song-wang/1b/979/619
p683
aVhttp://www.linkedin.com/pub/elizabeth-mynatt/5/14a/79a
p684
aVhttp://ca.linkedin.com/pub/bernard-moulin/12/294/827
p685
aVhttp://cn.linkedin.com/pub/shipeng-li/12/54b/18
p686
aVhttp://www.linkedin.com/pub/henry-selvaraj/27/4b5/274
p687
aVhttp://www.linkedin.com/pub/sebastian-thrun/17/713/88
p688
aVhttp://www.linkedin.com/pub/werner-stuetzle/28/62/119
p689
aVhttp://www.linkedin.com/in/hristobojinov
p690
aVhttp://www.linkedin.com/pub/yao-ma/11/a46/964
p691
aVhttp://be.linkedin.com/in/dirkleinders
p692
aVhttp://uk.linkedin.com/pub/mingyu-guo/1b/36b/972
p693
aVhttp://www.linkedin.com/pub/nikolai-tillmann/20/bb9/a15
p694
aVhttp://www.linkedin.com/pub/zoran-popovic/5/881/362
p695
aVhttp://www.linkedin.com/pub/mark-allman/5/339/b38
p696
aVhttp://www.linkedin.com/pub/naoki-abe/51/23b/716
p697
aVhttp://au.linkedin.com/pub/alistair-moffat/20/9b0/948
p698
aVhttp://uk.linkedin.com/pub/tim-brody/4/448/841
p699
aVhttp://www.linkedin.com/pub/bing-zhou/8/974/144
p700
aVhttp://www.linkedin.com/pub/lin-xiao/a/a0/105
p701
aVhttp://in.linkedin.com/in/ashishverma
p702
aVhttp://in.linkedin.com/in/ashishverma
p703
aVhttp://gr.linkedin.com/pub/michalis-vazirgiannis/5/863/17b
p704
aVhttp://www.linkedin.com/pub/hao-chen/3/a36/82
p705
aVhttp://www.linkedin.com/in/pauljonbrown
p706
aVhttp://www.linkedin.com/pub/dan-boneh/20/990/8b5
p707
aVhttp://au.linkedin.com/pub/jie-yin/4a/656/281
p708
aVhttp://www.linkedin.com/pub/jie-yin/14/71/bb
p709
aVhttp://cn.linkedin.com/pub/jie-yin/1a/69b/991
p710
aVhttp://tw.linkedin.com/pub/chun-yao-wang/25/533/97b
p711
aVhttp://www.linkedin.com/in/tshaked
p712
aVhttp://cn.linkedin.com/pub/bin-gao/24/7b2/2a2
p713
aVhttp://cn.linkedin.com/in/fenggao
p714
aVhttp://cn.linkedin.com/in/fenggao
p715
aVhttp://gr.linkedin.com/pub/constantine-kotropoulos/18/856/702
p716
aVhttp://www.linkedin.com/pub/koushik-kar/3/875/211
p717
aVhttp://www.linkedin.com/pub/martin-strauss/37/424/453
p718
aVhttp://www.linkedin.com/pub/krishnaram-kenthapadi/14/325/90
p719
aVhttp://www.linkedin.com/pub/masanori-hashimoto/18/695/290
p720
aVhttp://www.linkedin.com/pub/michael-mislove/8/a79/a8a
p721
aVhttp://cn.linkedin.com/pub/yong-rui/5/208/5b2
p722
aVhttp://il.linkedin.com/pub/gadi-fibich/18/2b/6a3
p723
aVhttp://www.linkedin.com/in/daswani
p724
aVhttp://www.linkedin.com/pub/jack-dongarra/0/544/28
p725
aVhttp://www.linkedin.com/pub/aynur-abdurazik/a/606/6a1
p726
aVhttp://www.linkedin.com/pub/anil-nigam/5/605/4a4
p727
aVhttp://www.linkedin.com/in/husseinm
p728
aVhttp://www.linkedin.com/pub/jakub-kurzak/23/396/a16
p729
aVhttp://www.linkedin.com/pub/peng-li/33/739/48
p730
aVhttp://www.linkedin.com/in/rahulbiswas
p731
aVhttp://www.linkedin.com/in/srikantatirthapura
p732
aVhttp://www.linkedin.com/pub/jeff-johnson/4/13/972
p733
aVhttp://cn.linkedin.com/pub/hao-yang/18/182/216
p734
aVhttp://www.linkedin.com/pub/hao-yang/29/ab4/bb6
p735
aVhttp://ca.linkedin.com/pub/henry-wolkowicz/1a/799/a97
p736
aVhttp://uk.linkedin.com/in/davidleetechbusinessconsultant
p737
aVhttp://www.linkedin.com/pub/datong-chen/3/108/aa1
p738
aVhttp://ca.linkedin.com/in/jfrancoisgirard
p739
aVhttp://www.linkedin.com/pub/michael-grossberg/20/80/2b2
p740
aVhttp://www.linkedin.com/pub/cesar-rego/19/a03/54
p741
aVhttp://www.linkedin.com/in/davidmarshallsmith
p742
aVhttp://www.linkedin.com/in/nunofsantos
p743
aVhttp://www.linkedin.com/in/sizrailev
p744
aVhttp://ca.linkedin.com/pub/ehsan-atoofian/14/8a7/3b6
p745
aVhttp://www.linkedin.com/in/techdiligence
p746
aVhttp://www.linkedin.com/in/xiaojunw
p747
aVhttp://in.linkedin.com/in/mohangv
p748
aVhttp://in.linkedin.com/in/mohangv
p749
aVhttp://www.linkedin.com/pub/satoshi-sekine/25/714/4a7
p750
aVhttp://in.linkedin.com/in/dheerajsanghi
p751
aVhttp://www.linkedin.com/in/doushen
p752
aVhttp://lb.linkedin.com/pub/ibrahim-hajj/7/709/b29
p753
aVhttp://www.linkedin.com/pub/daryl-pregibon/9/883/21a
p754
aVhttp://www.linkedin.com/pub/daryl-pregibon/11/a08/a46
p755
aVhttp://www.linkedin.com/in/wefeng
p756
aVhttp://uk.linkedin.com/pub/rolf-apweiler/b/44/380
p757
aVhttp://www.linkedin.com/pub/shari-trewin/4/a2/1a4
p758
aVhttp://www.linkedin.com/pub/ronald-fagin/2a/151/b82
p759
aVhttp://www.linkedin.com/pub/anthony-maida/37/901/89a
p760
aVhttp://www.linkedin.com/pub/bin-liu/16/87/b14
p761
aVhttp://cn.linkedin.com/pub/xin-tong/13/68/986
p762
aVhttp://cn.linkedin.com/pub/xin-tong/13/68/986
p763
aVhttp://www.linkedin.com/pub/zhi-li-zhang/4/400/6b3
p764
aVhttp://www.linkedin.com/pub/david-pennock/5/283/880
p765
aVhttp://www.linkedin.com/pub/ali-ghodsi/2/610/280
p766
aVhttp://cn.linkedin.com/pub/qing-he/17/a20/637
p767
aVhttp://cn.linkedin.com/pub/jing-xiao/28/33a/709
p768
aVhttp://www.linkedin.com/pub/craig-schlenoff/6/3b4/a40
p769
aVhttp://www.linkedin.com/pub/marco-ramoni/10/3b8/8a
p770
aVhttp://be.linkedin.com/pub/dieter-fiems/6/212/841
p771
aVhttp://ie.linkedin.com/pub/stephen-blott/59/79b/16
p772
aVhttp://cn.linkedin.com/pub/ying-qing-xu/4/2/33a
p773
aVhttp://ee.linkedin.com/pub/uko-maran/13/673/89
p774
aVhttp://www.linkedin.com/pub/kobus-barnard/7/a40/4b1
p775
aVhttp://ie.linkedin.com/pub/sami-bhiri/9/892/896
p776
aVhttp://ee.linkedin.com/pub/peeter-laud/b/65/8b8
p777
aVhttp://www.linkedin.com/pub/arthur-delcher/29/450/682
p778
aVhttp://ca.linkedin.com/pub/diego-macrini/4/a17/896
p779
aVhttp://au.linkedin.com/pub/mark-davis/1a/709/833
p780
aVhttp://uk.linkedin.com/pub/daniela-petrelli/58/b16/518
p781
aVhttp://www.linkedin.com/pub/bin-wu/46/58/3b
p782
aVhttp://ca.linkedin.com/pub/alex-thomo/1a/230/a10
p783
aVhttp://gr.linkedin.com/pub/aggelos-pikrakis/b/6aa/516
p784
aVhttp://www.linkedin.com/pub/natarajan-meghanathan/13/959/a85
p785
aVhttp://uk.linkedin.com/pub/yulan-he/a/234/277
p786
aVhttp://be.linkedin.com/pub/yves-van-de-peer/17/899/746
p787
aVhttp://be.linkedin.com/pub/theo-moons/5/351/1b4
p788
aVhttp://www.linkedin.com/pub/viji-srinivasan/16/1a4/b84
p789
aVhttp://gr.linkedin.com/pub/achilles-kameas/7/b4a/8aa
p790
aVhttp://ie.linkedin.com/pub/georgios-theodoropoulos/6/328/752
p791
aVhttp://www.linkedin.com/pub/song-wang/5/965/99b
p792
aVhttp://www.linkedin.com/pub/gabriel-robins/31/b48/83
p793
aVhttp://www.linkedin.com/pub/pankaj-rohatgi/4/664/24b
p794
aVhttp://uk.linkedin.com/pub/ian-ruthven/4/517/423
p795
aVhttp://be.linkedin.com/pub/jan-van-den-bussche/a/76b/696
p796
aVhttp://www.linkedin.com/pub/shih-fu-chang/b/b87/61a
p797
aVhttp://il.linkedin.com/pub/david-carmel/3/b48/713
p798
aVhttp://www.linkedin.com/pub/jeffrey-trinkle/14/724/ab1
p799
aVhttp://www.linkedin.com/pub/konstantin-mischaikow/42/947/7b
p800
aVhttp://in.linkedin.com/pub/manish-jain/31/8b9/69b
p801
aVhttp://in.linkedin.com/pub/manish-jain/31/8b9/69b
p802
aVhttp://in.linkedin.com/pub/manish-jain/31/8b9/69b
p803
aVhttp://in.linkedin.com/pub/manish-jain/31/8b9/69b
p804
aVhttp://www.linkedin.com/pub/denys-poshyvanyk/3/ab3/784
p805
aVhttp://uk.linkedin.com/pub/ammar-belatreche/16/658/87b
p806
aVhttp://in.linkedin.com/pub/nisheeth-shrivastava/3/820/a44
p807
aVhttp://www.linkedin.com/pub/mahesh-balakrishnan/2/b57/881
p808
aVhttp://www.linkedin.com/pub/mohamed-eltoweissy/12/866/94b
p809
aVhttp://www.linkedin.com/pub/allen-goldberg/2/55a/903
p810
aVhttp://pk.linkedin.com/pub/awais-rashid/18/660/652
p811
aVhttp://www.linkedin.com/pub/james-abello/4/a91/583
p812
aVhttp://ca.linkedin.com/pub/hossam-hassanein/30/9a7/a6
p813
aVhttp://au.linkedin.com/pub/antony-tang/12/16/8a5
p814
aVhttp://cn.linkedin.com/pub/kun-zhou/57/274/b63
p815
aVhttp://www.linkedin.com/pub/soyeon-park/35/848/4a5
p816
aVhttp://www.linkedin.com/pub/james-larus/6/347/42b
p817
aVhttp://in.linkedin.com/pub/aman-kansal/17/8aa/315
p818
aVhttp://www.linkedin.com/pub/deb-roy/4/a64/662
p819
aVhttp://cn.linkedin.com/pub/xiaoying-bai/3a/28a/948
p820
aVhttp://cn.linkedin.com/pub/yufeng-wang/4/5a/827
p821
aVhttp://si.linkedin.com/pub/franc-solina/6/74a/b17
p822
aVhttp://www.linkedin.com/pub/frederick-reiss/19/70b/a46
p823
aVhttp://www.linkedin.com/pub/jonathan-ledlie/8/630/16b
p824
aVhttp://il.linkedin.com/pub/amir-ronen/7/b82/bb1
p825
aVhttp://cn.linkedin.com/pub/kai-tang/2b/281/826
p826
aVhttp://www.linkedin.com/pub/ossama-younis/a/295/87b
p827
aVhttp://cn.linkedin.com/pub/junwei-cao/21/999/a68
p828
aVhttp://hk.linkedin.com/pub/john-c-s-lui/13/845/0
p829
aVhttp://www.linkedin.com/pub/karthik-visweswariah/4/129/59b
p830
aVhttp://gr.linkedin.com/pub/george-papagiannakis/1/226/49b
p831
aVhttp://www.linkedin.com/pub/howard-shrobe/a/218/802
p832
aVhttp://www.linkedin.com/pub/neil-rowe/42/856/919
p833
aVhttp://au.linkedin.com/pub/brian-lovell/4/759/99
p834
aVhttp://www.linkedin.com/pub/israel-koren/20/369/852
p835
aVhttp://www.linkedin.com/pub/ram-ramanathan/8/536/1a1
p836
aVhttp://be.linkedin.com/pub/pierre-wolper/0/200/b79
p837
aVhttp://uk.linkedin.com/pub/bernd-porr/2a/594/8a1
p838
aVhttp://il.linkedin.com/pub/kfir-gedalyahu/11/730/252
p839
aVhttp://www.linkedin.com/pub/kurt-vanlehn/a/430/323
p840
aVhttp://www.linkedin.com/pub/ali-movaghar/2a/573/368
p841
aVhttp://www.linkedin.com/pub/christos-papadopoulos/5/285/696
p842
aVhttp://www.linkedin.com/pub/bard-ermentrout/43/116/721
p843
aVhttp://www.linkedin.com/pub/han-wei-shen/23/a62/7b7
p844
aVhttp://www.linkedin.com/pub/bin-liu/26/873/aa6
p845
aVhttp://ca.linkedin.com/pub/franck-van-breugel/13/855/84b
p846
aVhttp://cn.linkedin.com/pub/xin-tong/9/203/889
p847
aVhttp://cn.linkedin.com/pub/xin-tong/9/203/889
p848
aVhttp://ca.linkedin.com/pub/tal-arbel/3/764/327
p849
aVhttp://www.linkedin.com/pub/mandana-vaziri/31/213/1aa
p850
aVhttp://www.linkedin.com/pub/yixin-diao/9/14/88
p851
aVhttp://www.linkedin.com/pub/pat-hanrahan/13/356/100
p852
aVhttp://www.linkedin.com/pub/ilya-pollak/a/345/5ba
p853
aVhttp://de.linkedin.com/pub/thomas-friese/1a/b6b/7b9
p854
aVhttp://uk.linkedin.com/pub/keshav-dahal/6/782/8b4
p855
aVhttp://www.linkedin.com/pub/richard-goodwin/5/b4/31a
p856
aVhttp://www.linkedin.com/pub/loren-schwiebert/10/a25/326
p857
aVhttp://uk.linkedin.com/pub/david-barnes/6/6ba/646
p858
aVhttp://www.linkedin.com/pub/arun-lakhotia/16/764/941
p859
aVhttp://cn.linkedin.com/pub/ying-qing-xu/5/709/3a3
p860
aVhttp://uk.linkedin.com/pub/fiona-polack/24/a78/1b6
p861
aVhttp://tw.linkedin.com/pub/youn-long-lin/6/986/2bb
p862
aVhttp://www.linkedin.com/pub/jason-baldridge/5/629/9b2
p863
aVhttp://www.linkedin.com/pub/carolyn-seaman/3/a92/a03
p864
aVhttp://www.linkedin.com/pub/xavier-tricoche/4/4b8/843
p865
aVhttp://www.linkedin.com/pub/xavier-tricoche/5/3a0/5a3
p866
aVhttp://www.linkedin.com/pub/pamela-hinds/6/865/89b
p867
aVhttp://www.linkedin.com/pub/mirela-damian/57/67a/b28
p868
aVhttp://www.linkedin.com/pub/sumit-roy/4/962/211
p869
aVhttp://www.linkedin.com/pub/xuanhui-wang/b/137/204
p870
aVhttp://au.linkedin.com/in/plutosun
p871
aVhttp://cn.linkedin.com/pub/jianhua-feng/16/b49/708
p872
aVhttp://uk.linkedin.com/pub/vladimir-getov/29/b78/123
p873
aVhttp://www.linkedin.com/pub/patrice-simard/5/831/a55
p874
aVhttp://www.linkedin.com/pub/dengyong-zhou/7/548/769
p875
aVhttp://uk.linkedin.com/pub/niki-panteli/14/724/305
p876
aVhttp://www.linkedin.com/pub/stefano-soatto/6/5aa/576
p877
aVhttp://www.linkedin.com/pub/cho-jui-hsieh/3b/79b/541
p878
aVhttp://ca.linkedin.com/pub/igor-jurisica/46/294/475
p879
aVhttp://www.linkedin.com/pub/l-thorne-mccarty/24/656/325
p880
aVhttp://uk.linkedin.com/pub/mahesh-marina/23/29a/226
p881
aVhttp://www.linkedin.com/pub/ashfaq-khokhar/9/170/709
p882
aVhttp://www.linkedin.com/pub/yang-song/4/443/bba
p883
aVhttp://www.linkedin.com/pub/benjamin-pierce/5/746/3a0
p884
aVhttp://uk.linkedin.com/pub/richard-prager/4/6b1/a36
p885
aVhttp://www.linkedin.com/pub/gang-hua/a/a22/87a
p886
aVhttp://au.linkedin.com/pub/marcus-gallagher/9/a2a/620
p887
aVhttp://gr.linkedin.com/pub/ioanna-roussaki/5/a85/a93
p888
aVhttp://www.linkedin.com/pub/dong-wang/8/13b/197
p889
aVhttp://www.linkedin.com/pub/julie-zelenski/6/564/975
p890
aVhttp://www.linkedin.com/pub/andrei-broder/0/59/b21
p891
aVhttp://uk.linkedin.com/pub/alex-rogers/4/595/312
p892
aVhttp://uk.linkedin.com/pub/julian-bradfield/4/6b4/225
p893
aVhttp://gr.linkedin.com/pub/sotiris-nikoletseas/5/762/322
p894
aVhttp://www.linkedin.com/pub/dhiman-barman/5/230/979
p895
aVhttp://au.linkedin.com/pub/kevin-korb/12/749/122
p896
aVhttp://cn.linkedin.com/pub/chin-yew-lin/4/85a/325
p897
aVhttp://uk.linkedin.com/pub/michael-huth/17/99/b51
p898
aVhttp://uk.linkedin.com/pub/mark-handley/29/362/2a6
p899
aVhttp://sg.linkedin.com/pub/karthik-nandakumar/5/446/550
p900
aVhttp://ca.linkedin.com/pub/michael-rabbat/7/b/66a
p901
aVhttp://ie.linkedin.com/pub/rolf-riesen/4/10a/622
p902
aVhttp://cn.linkedin.com/pub/bin-liu/15/a87/2bb
p903
aVhttp://ca.linkedin.com/pub/jeff-edmonds/36/844/57b
p904
aVhttp://www.linkedin.com/pub/clare-marie-karat/3/244/498
p905
aVhttp://www.linkedin.com/pub/marco-valtorta/4/53/b99
p906
aVhttp://sg.linkedin.com/pub/daniel-thalmann/5/713/78b
p907
aVhttp://uk.linkedin.com/pub/khalid-belhajjame/38/a06/590
p908
aVhttp://www.linkedin.com/pub/xin-li/b/766/709
p909
aVhttp://cn.linkedin.com/pub/dan-pei/4/a25/6aa
p910
aVhttp://www.linkedin.com/pub/ian-soboroff/9/114/2b6
p911
aVhttp://ca.linkedin.com/pub/amy-gooch/5/337/689
p912
aVhttp://www.linkedin.com/pub/wojciech-maly/14/334/537
p913
aVhttp://uk.linkedin.com/pub/huiyu-zhou/14/16b/342
p914
aVhttp://www.linkedin.com/pub/philip-klein/14/695/850
p915
aVhttp://www.linkedin.com/pub/sandeep-mane/4/740/27b
p916
aVhttp://ca.linkedin.com/pub/brian-detlor/16/618/699
p917
aVhttp://www.linkedin.com/pub/satyandra-gupta/5/774/154
p918
aVhttp://www.linkedin.com/pub/timothy-bickmore/6/91/a3b
p919
aVhttp://il.linkedin.com/pub/judith-gal-ezer/21/991/922
p920
aVhttp://fi.linkedin.com/pub/kai-koskimies/4/2b3/857
p921
aVhttp://www.linkedin.com/pub/robert-deline/8/b59/11b
p922
aVhttp://cn.linkedin.com/pub/hong-zhu/33/2a3/5a8
p923
aVhttp://www.linkedin.com/pub/stanley-osher/7/358/53
p924
aVhttp://tw.linkedin.com/pub/edward-chang/2/b18/218
p925
aVhttp://gr.linkedin.com/pub/apostolos-n-papadopoulos/12/626/903
p926
aVhttp://cn.linkedin.com/pub/yong-xu/34/896/a1b
p927
aVhttp://www.linkedin.com/pub/jamie-callan/49/430/a49
p928
aVhttp://in.linkedin.com/pub/kunal-verma/5/563/a27
p929
aVhttp://il.linkedin.com/pub/aharon-bar-hillel/4/668/4a7
p930
aVhttp://be.linkedin.com/pub/jan-cornelis/4/b6b/4b8
p931
aVhttp://www.linkedin.com/pub/indrajit-ray/4/975/22
p932
aVhttp://ca.linkedin.com/pub/samaneh-moghaddam/30/191/949
p933
aVhttp://uk.linkedin.com/pub/benedict-du-boulay/5/973/937
p934
aVhttp://www.linkedin.com/pub/clayton-fink/4/b0b/136
p935
aVhttp://ca.linkedin.com/pub/abdulmotaleb-el-saddik/9/8a7/1a5
p936
aVhttp://www.linkedin.com/pub/bee-chung-chen/5/a8b/877
p937
aVhttp://www.linkedin.com/pub/eric-allman/2/a9/705
p938
aVhttp://www.linkedin.com/pub/pamela-cosman/5/5a9/864
p939
aVhttp://ca.linkedin.com/pub/jun-zhu/35/972/8b3
p940
aVhttp://www.linkedin.com/pub/frank-mccown/12/224/87
p941
aVhttp://au.linkedin.com/pub/su-nam-kim/4/6b3/33a
p942
aVhttp://gr.linkedin.com/pub/athena-vakali/a/b20/32a
p943
aVhttp://gr.linkedin.com/pub/panagiotis-symeonidis/b/496/482
p944
aVhttp://www.linkedin.com/pub/atilla-eryilmaz/21/a43/90a
p945
aVhttp://au.linkedin.com/pub/chengqi-zhang/10/a89/55a
p946
aVhttp://uk.linkedin.com/pub/paolo-favaro/4/65b/257
p947
aVhttp://www.linkedin.com/pub/benjamin-grosof/0/b1/45
p948
aVhttp://www.linkedin.com/pub/sukumar-ghosh/1b/5aa/b8b
p949
aVhttp://www.linkedin.com/pub/roshanak-roshandel/5/230/625
p950
aVhttp://uk.linkedin.com/pub/leszek-gasieniec/2b/872/495
p951
aVhttp://in.linkedin.com/pub/rajeev-gupta/5/742/95
p952
aVhttp://www.linkedin.com/pub/peter-pirolli/6/943/302
p953
aVhttp://il.linkedin.com/pub/ran-ginosar/1/767/7ba
p954
aVhttp://cn.linkedin.com/pub/lin-liu/17/944/189
p955
aVhttp://il.linkedin.com/pub/nir-friedman/6/38/b07
p956
aVhttp://uk.linkedin.com/pub/nigel-smart/5/6b8/319
p957
aVhttp://www.linkedin.com/pub/adam-meyerson/8/733/514
p958
aVhttp://www.linkedin.com/pub/jian-zhang/17/335/6a
p959
aVhttp://www.linkedin.com/pub/john-white/5/b72/673
p960
aVhttp://ca.linkedin.com/pub/dominique-orban/6/7ab/949
p961
aVhttp://ca.linkedin.com/pub/shai-ben-david/16/b18/914
p962
aVhttp://uk.linkedin.com/pub/john-illingworth/16/a6a/976
p963
aVhttp://www.linkedin.com/pub/somnath-mukhopadhyay/50/994/790
p964
aVhttp://cn.linkedin.com/pub/wei-zhao/10/92/148
p965
aVhttp://www.linkedin.com/pub/eva-hudlicka/2/9a4/ab0
p966
aVhttp://www.linkedin.com/pub/wade-trappe/8/391/209
p967
aVhttp://www.linkedin.com/pub/liang-sun/21/876/a0a
p968
aVhttp://sg.linkedin.com/pub/fang-wu/5/b31/620
p969
aVhttp://www.linkedin.com/pub/fred-glover/7/480/813
p970
aVhttp://www.linkedin.com/pub/shimon-edelman/11/2a2/509
p971
aVhttp://cn.linkedin.com/pub/jianhua-feng/34/321/932
p972
aVhttp://www.linkedin.com/pub/niranjan-suri/b/484/8b6
p973
aVhttp://www.linkedin.com/pub/elchanan-mossel/18/336/838
p974
aVhttp://www.linkedin.com/pub/xiaodong-wang/30/243/400
p975
aVhttp://www.linkedin.com/pub/dimitris-metaxas/14/749/1bb
p976
aVhttp://au.linkedin.com/pub/bruce-litow/25/8b5/9b7
p977
aVhttp://www.linkedin.com/pub/jianwen-su/5/b74/b64
p978
aVhttp://www.linkedin.com/pub/changkyu-kim/11/5a/6b7
p979
aVhttp://tw.linkedin.com/pub/wen-yang-lin/44/123/122
p980
aVhttp://www.linkedin.com/pub/aditya-kalyanpur/2a/764/11a
p981
aVhttp://www.linkedin.com/pub/xiaodong-wang/30/243/400
p982
aVhttp://au.linkedin.com/pub/eric-cheung/20/579/a2a
p983
aVhttp://www.linkedin.com/pub/john-strassner/a/a98/41b
p984
aVhttp://www.linkedin.com/pub/lunjin-lu/14/991/32a
p985
aVhttp://au.linkedin.com/pub/willy-susilo/b/591/295
p986
aVhttp://www.linkedin.com/pub/christoph-adami/6/822/72
p987
aVhttp://www.linkedin.com/pub/yoonsik-cheon/5/76/445
p988
aVhttp://www.linkedin.com/pub/nilanjan-banerjee/10/99/486
p989
aVhttp://www.linkedin.com/pub/aniruddha-gokhale/9/126/387
p990
aVhttp://fi.linkedin.com/pub/samuel-kaski/0/90/277
p991
aVhttp://www.linkedin.com/pub/liefeng-bo/13/215/698
p992
aVhttp://cn.linkedin.com/pub/peng-wu/35/428/a7a
p993
aVhttp://www.linkedin.com/pub/beat-schmid/12/385/8b6
p994
aVhttp://ae.linkedin.com/pub/ibrahim-kamel/25/380/47b
p995
aVhttp://www.linkedin.com/pub/mayur-datar/18/650/b0a
p996
aVhttp://www.linkedin.com/pub/sirkka-jarvenpaa/6/884/583
p997
aVhttp://be.linkedin.com/pub/alejandro-vaisman/6/a46/9b4
p998
aVhttp://www.linkedin.com/pub/guozhu-dong/6/80/b3a
p999
aVhttp://www.linkedin.com/pub/dijiang-huang/12/281/362
p1000
aVhttp://www.linkedin.com/pub/diane-cook/22/b57/5a
p1001
aVhttp://www.linkedin.com/pub/stephanie-weirich/8/b7a/225
p1002
aVhttp://ca.linkedin.com/pub/peter-yiannacouras/8/b10/b72
p1003
aVhttp://www.linkedin.com/pub/andreas-spanias/28/939/a64
p1004
aVhttp://hk.linkedin.com/pub/bing-zeng/24/ba1/810
p1005
aVhttp://www.linkedin.com/pub/zhiming-liu/11/632/bb6
p1006
aVhttp://gr.linkedin.com/pub/sergios-petridis/21/425/6a6
p1007
aVhttp://uk.linkedin.com/pub/thorsten-altenkirch/4/89a/217
p1008
aVhttp://au.linkedin.com/pub/john-grundy/2/3b3/356
p1009
aVhttp://ca.linkedin.com/pub/marc-parizeau/13/72/761
p1010
aVhttp://www.linkedin.com/pub/chandra-chekuri/19/207/765
p1011
aVhttp://www.linkedin.com/pub/xing-li/8/70/6a8
p1012
aVhttp://www.linkedin.com/pub/jun-yan/6/27a/79a
p1013
aVhttp://fi.linkedin.com/pub/martti-juhola/24/609/36
p1014
aVhttp://www.linkedin.com/pub/fatma-mili/13/a05/b45
p1015
aVhttp://www.linkedin.com/pub/hong-lu/19/a1b/549
p1016
aVhttp://uk.linkedin.com/pub/cliff-jones/8/11b/a25
p1017
aVhttp://il.linkedin.com/pub/kobbi-nissim/26/233/806
p1018
aVhttp://www.linkedin.com/pub/indrakshi-ray/8/b57/2aa
p1019
aVhttp://www.linkedin.com/pub/xin-huang/46/a04/83a
p1020
aVhttp://www.linkedin.com/pub/jian-chen/b/151/654
p1021
aVhttp://uk.linkedin.com/pub/mohamed-medhat-gaber/7/378/6a8
p1022
aVhttp://www.linkedin.com/pub/christian-collberg/5/a0b/a37
p1023
aVhttp://www.linkedin.com/pub/raghu-machiraju/1/78/285
p1024
aVhttp://www.linkedin.com/pub/paul-barford/4/587/172
p1025
aVhttp://fi.linkedin.com/pub/kari-smolander/0/543/12b
p1026
aVhttp://www.linkedin.com/pub/pamela-jordan/29/bb9/7b4
p1027
aVhttp://www.linkedin.com/pub/parameswaran-ramanathan/9/705/71
p1028
aVhttp://www.linkedin.com/pub/xiaowei-xu/4/353/838
p1029
aVhttp://www.linkedin.com/pub/peng-liu/9/338/a9
p1030
aVhttp://www.linkedin.com/pub/peng-liu/9/338/a9
p1031
aVhttp://www.linkedin.com/pub/lucian-popa/5/698/b0a
p1032
aVhttp://www.linkedin.com/pub/dieter-fox/4/aa2/910
p1033
aVhttp://www.linkedin.com/pub/shi-zhong/3/950/a5b
p1034
aVhttp://au.linkedin.com/pub/john-yearwood/a/4aa/347
p1035
aVhttp://in.linkedin.com/pub/munish-goyal/5/824/576
p1036
aVhttp://sg.linkedin.com/pub/atreyi-kankanhalli/5/a46/45b
p1037
aVhttp://www.linkedin.com/pub/lyle-ungar/4/147/b06
p1038
aVhttp://uk.linkedin.com/pub/andrew-ireland/9/a77/70a
p1039
aVhttp://au.linkedin.com/pub/zahir-tari/8/aa2/70a
p1040
aVhttp://www.linkedin.com/pub/ying-liu/15/48b/5a9
p1041
aVhttp://be.linkedin.com/pub/marco-saerens/8/ab5/66a
p1042
aVhttp://www.linkedin.com/pub/erich-nahum/5/5b1/a3b
p1043
aVhttp://www.linkedin.com/pub/yan-sun/29/104/327
p1044
aVhttp://ie.linkedin.com/pub/nicola-stokes/4/820/a04
p1045
aVhttp://sg.linkedin.com/pub/gang-wang/1a/537/b9
p1046
aVhttp://sg.linkedin.com/pub/gang-wang/1a/537/b9
p1047
aVhttp://uk.linkedin.com/pub/richard-wheeldon/4/25b/3ab
p1048
aVhttp://uk.linkedin.com/pub/andrew-howes/3a/aaa/119
p1049
aVhttp://cn.linkedin.com/pub/kongqiao-wang/15/1b7/b67
p1050
aVhttp://www.linkedin.com/pub/xiaoguang-lu/4/602/637
p1051
aVhttp://www.linkedin.com/pub/harold-ossher/41/873/70b
p1052
aVhttp://www.linkedin.com/pub/harold-ossher/6/870/639
p1053
aVhttp://ca.linkedin.com/pub/anthony-bonner/45/80b/8a2
p1054
aVhttp://uk.linkedin.com/pub/nello-cristianini/3/184/787
p1055
aVhttp://ca.linkedin.com/pub/evangelos-milios/5/368/297
p1056
aVhttp://uk.linkedin.com/pub/peter-mosses/17/a98/a81
p1057
aVhttp://www.linkedin.com/pub/costas-georghiades/33/139/2a1
p1058
aVhttp://www.linkedin.com/pub/tong-liu/15/3b9/942
p1059
aVhttp://sg.linkedin.com/pub/jun-luo/22/5/a94
p1060
aVhttp://sg.linkedin.com/pub/jun-luo/22/5/a94
p1061
aVhttp://www.linkedin.com/pub/yevgeniy-dodis/1/b2/183
p1062
aVhttp://www.linkedin.com/pub/jianjian-song/b/993/a72
p1063
aVhttp://gr.linkedin.com/pub/nikos-tsourveloudis/34/600/354
p1064
aVhttp://uk.linkedin.com/pub/nirmalie-wiratunga/10/4/501
p1065
aVhttp://be.linkedin.com/pub/francis-heylighen/4/558/70
p1066
aVhttp://www.linkedin.com/pub/john-greiner/17/b10/901
p1067
aVhttp://www.linkedin.com/pub/victor-frost/6/190/4a7
p1068
aVhttp://tw.linkedin.com/pub/polly-huang/36/b97/942
p1069
aVhttp://au.linkedin.com/pub/ryszard-kowalczyk/16/a22/a47
p1070
aVhttp://www.linkedin.com/pub/xin-qi/11/26b/ab9
p1071
aVhttp://www.linkedin.com/pub/ce-liu/1a/750/569
p1072
aVhttp://www.linkedin.com/pub/ronald-rivest/47/237/989
p1073
aVhttp://ie.linkedin.com/pub/barry-brown/0/b1a/955
p1074
aVhttp://gr.linkedin.com/pub/vassilis-paliouras/28/908/803
p1075
aVhttp://be.linkedin.com/pub/hans-vangheluwe/3/b94/6b5
p1076
aVhttp://ca.linkedin.com/pub/kate-larson/16/55/a84
p1077
aVhttp://hk.linkedin.com/pub/dekai-wu/0/3a/7a1
p1078
aVhttp://www.linkedin.com/pub/chalermek-intanagonwiwat/33/747/113
p1079
aVhttp://www.linkedin.com/pub/mark-musen/0/17/690
p1080
aVhttp://be.linkedin.com/pub/bart-thijs/46/b67/807
p1081
aVhttp://www.linkedin.com/pub/kamin-whitehouse/4/8bb/581
p1082
aVhttp://www.linkedin.com/pub/atul-kanaujia/4/233/348
p1083
aVhttp://www.linkedin.com/pub/lior-pachter/10/a83/45a
p1084
aVhttp://cn.linkedin.com/pub/yin-zhang/20/200/394
p1085
aVhttp://www.linkedin.com/pub/michael-kozuch/12/675/451
p1086
aVhttp://www.linkedin.com/pub/ari-trachtenberg/0/ba0/669
p1087
aVhttp://il.linkedin.com/pub/zinovi-rabinovich/5/172/7b7
p1088
aVhttp://fi.linkedin.com/pub/vagan-terziyan/4/11/454
p1089
aVhttp://www.linkedin.com/pub/fred-cohen/0/2a9/901
p1090
aVhttp://www.linkedin.com/pub/radu-marculescu/6/985/154
p1091
aVhttp://www.linkedin.com/pub/sanjeev-kulkarni/15/962/5b0
p1092
aVhttp://fi.linkedin.com/pub/harri-valpola/2/577/180
p1093
aVhttp://www.linkedin.com/pub/jim-blythe/0/328/908
p1094
aVhttp://www.linkedin.com/pub/farnoush-banaei-kashani/4/445/361
p1095
aVhttp://au.linkedin.com/pub/chung-li-tseng/2b/1ba/ba3
p1096
aVhttp://www.linkedin.com/pub/constantine-caramanis/5/105/a71
p1097
aVhttp://uk.linkedin.com/pub/rudolph-triebel/13/77/821
p1098
aVhttp://uk.linkedin.com/pub/lucia-rapanotti/18/705/a82
p1099
aVhttp://www.linkedin.com/pub/douglas-comer/5/a77/a92
p1100
aVhttp://ca.linkedin.com/pub/ben-liang/4/599/55
p1101
aVhttp://il.linkedin.com/pub/oren-kurland/5/65/405
p1102
aVhttp://fi.linkedin.com/pub/olli-yli-harja/14/332/20b
p1103
aVhttp://www.linkedin.com/pub/hamid-nawab/10/b94/209
p1104
aVhttp://www.linkedin.com/pub/arunava-banerjee/9/373/200
p1105
aVhttp://in.linkedin.com/pub/balaji-padmanabhan/11/592/340
p1106
aVhttp://www.linkedin.com/pub/grigore-rosu/7/189/b2b
p1107
aVhttp://www.linkedin.com/pub/tao-li/3/a58/129
p1108
aVhttp://www.linkedin.com/pub/amr-ahmed/5/896/b99
p1109
aVhttp://uk.linkedin.com/pub/vincent-danos/6/91b/aa5
p1110
aVhttp://www.linkedin.com/pub/jessica-hodgins/46/312/869
p1111
aVhttp://sg.linkedin.com/pub/i-ming-chen/36/999/844
p1112
aVhttp://uk.linkedin.com/pub/utz-roedig/5/62a/9a8
p1113
aVhttp://cn.linkedin.com/pub/ya-xiang-yuan/44/23b/201
p1114
aVhttp://cn.linkedin.com/pub/ya-xiang-yuan/22/a7/bb4
p1115
aVhttp://www.linkedin.com/pub/ioannis-stamos/5/abb/522
p1116
aVhttp://www.linkedin.com/pub/shawn-bowers/5/2a4/69a
p1117
aVhttp://uk.linkedin.com/pub/stephan-reiff-marganiec/4/7a5/343
p1118
aVhttp://uk.linkedin.com/pub/yevgeny-kazakov/4/744/b44
p1119
aVhttp://www.linkedin.com/pub/robert-braden/50/3b2/12a
p1120
aVhttp://www.linkedin.com/pub/georgios-b-giannakis/18/23b/540
p1121
aVhttp://cn.linkedin.com/pub/lidong-zhou/59/908/aab
p1122
aVhttp://cn.linkedin.com/pub/xin-li/7/746/365
p1123
aVhttp://hk.linkedin.com/pub/vincent-lau/3/313/a20
p1124
aVhttp://ca.linkedin.com/pub/brigitte-pientka/1a/213/895
p1125
aVhttp://www.linkedin.com/pub/david-chelberg/11/174/688
p1126
aVhttp://ca.linkedin.com/pub/kui-wu/1a/354/b20
p1127
aVhttp://www.linkedin.com/pub/mary-jean-harrold/3b/686/118
p1128
aVhttp://bg.linkedin.com/pub/dimiter-vakarelov/2a/700/702
p1129
aVhttp://www.linkedin.com/pub/baba-vemuri/45/555/229
p1130
aVhttp://cn.linkedin.com/pub/donghui-zhang/5b/65b/659
p1131
aVhttp://uk.linkedin.com/pub/norman-poh/39/223/191
p1132
aVhttp://ca.linkedin.com/pub/farid-najm/1/ba0/b03
p1133
aVhttp://ca.linkedin.com/pub/andrew-clement/a/990/758
p1134
aVhttp://ca.linkedin.com/pub/catherine-rosenberg/50/543/32
p1135
aVhttp://cn.linkedin.com/pub/zaiqing-nie/12/28/a32
p1136
aVhttp://www.linkedin.com/pub/jane-cleland-huang/4/622/278
p1137
aVhttp://www.linkedin.com/pub/joel-tetreault/12/345/672
p1138
aVhttp://ca.linkedin.com/pub/olga-ormandjieva/10/685/560
p1139
aVhttp://be.linkedin.com/pub/maarten-vergauwen/5/1a/629
p1140
aVhttp://uk.linkedin.com/pub/john-domingue/10/9a/7b4
p1141
aVhttp://sg.linkedin.com/pub/anders-yeo/4a/228/231
p1142
aVhttp://www.linkedin.com/pub/utkarsh-srivastava/4/475/974
p1143
aVhttp://www.linkedin.com/pub/anna-lysyanskaya/5/609/a96
p1144
aVhttp://www.linkedin.com/pub/bo-wu/4/4bb/238
p1145
aVhttp://www.linkedin.com/pub/rajeev-alur/3/743/8a1
p1146
aVhttp://www.linkedin.com/pub/stanley-kok/6/613/722
p1147
aVhttp://uk.linkedin.com/pub/joemon-jose/5/228/110
p1148
aVhttp://ca.linkedin.com/pub/mohamed-cheriet/6/407/332
p1149
aVhttp://kw.linkedin.com/pub/ayed-salman/13/342/5a4
p1150
aVhttp://www.linkedin.com/pub/venkat-venkatasubramanian/11/173/630
p1151
aVhttp://www.linkedin.com/pub/xiaolei-huang/6/68/b57
p1152
aVhttp://www.linkedin.com/pub/shantanu-dutt/a/922/569
p1153
aVhttp://www.linkedin.com/pub/mohammad-tehranipoor/6/113/a97
p1154
aVhttp://www.linkedin.com/pub/paulo-tabuada/7/6ab/118
p1155
aVhttp://in.linkedin.com/pub/malay-kumar-kundu/16/288/468
p1156
aVhttp://gr.linkedin.com/pub/nikolaos-avouris/10/892/223
p1157
aVhttp://hk.linkedin.com/pub/shing-chow-chan/32/468/1bb
p1158
aVhttp://ie.linkedin.com/pub/david-sinclair/6/60a/868
p1159
aVhttp://au.linkedin.com/pub/vinod-sharma/4/847/3b2
p1160
aVhttp://www.linkedin.com/pub/anna-gilbert/5/966/bb6
p1161
aVhttp://www.linkedin.com/pub/gary-flake/27/396/82b
p1162
aVhttp://www.linkedin.com/pub/xiao-qin/1/320/963
p1163
aVhttp://www.linkedin.com/pub/tomasz-janowski/7/9b1/853
p1164
aVhttp://il.linkedin.com/pub/ziv-bar-yossef/28/564/a26
p1165
aVhttp://uk.linkedin.com/pub/yue-wang/11/42a/604
p1166
aVhttp://ca.linkedin.com/pub/ehud-sharlin/17/5b7/201
p1167
aVhttp://ca.linkedin.com/pub/dimitri-marinakis/7/b03/371
p1168
aVhttp://www.linkedin.com/pub/changpeng-fang/a/bb6/969
p1169
aVhttp://tw.linkedin.com/pub/hsin-min-wang/17/714/978
p1170
aVhttp://www.linkedin.com/pub/victor-eijkhout/5/632/75
p1171
aVhttp://www.linkedin.com/pub/philip-papadopoulos/5/43a/604
p1172
aVhttp://www.linkedin.com/pub/yuan-fang-wang/5/45/734
p1173
aVhttp://uk.linkedin.com/pub/alun-preece/26/5a0/666
p1174
aVhttp://www.linkedin.com/pub/beverly-park-woolf/30/660/a42
p1175
aVhttp://www.linkedin.com/pub/matthew-fluet/9/b34/552
p1176
aVhttp://www.linkedin.com/pub/rajeev-sivaram/5/68/127
p1177
aVhttp://be.linkedin.com/pub/michel-rigo/46/a0a/848
p1178
aVhttp://www.linkedin.com/pub/subhash-saini/4/388/744
p1179
aVhttp://www.linkedin.com/pub/henry-tirri/0/82/564
p1180
aVhttp://www.linkedin.com/pub/gary-geisler/36/7/938
p1181
aVhttp://www.linkedin.com/pub/ninghui-li/3/8a6/13b
p1182
aVhttp://www.linkedin.com/pub/alina-beygelzimer/a/585/163
p1183
aVhttp://www.linkedin.com/pub/tim-roughgarden/55/948/1a5
p1184
aVhttp://il.linkedin.com/pub/ilan-newman/22/965/b22
p1185
aVhttp://il.linkedin.com/pub/danny-hendler/4/b57/47b
p1186
aVhttp://www.linkedin.com/pub/gert-cauwenberghs/7/78b/579
p1187
aVhttp://ch.linkedin.com/pub/stephane-garchery/5/337/999
p1188
aVhttp://in.linkedin.com/pub/biplav-srivastava/4/2b3/52
p1189
aVhttp://il.linkedin.com/pub/moshe-lewenstein/24/a8/9b3
p1190
aVhttp://au.linkedin.com/pub/ann-nicholson/9/6a9/71a
p1191
aVhttp://www.linkedin.com/pub/chris-diorio/37/7a6/785
p1192
aVhttp://uk.linkedin.com/pub/volker-sorge/41/45a/1
p1193
aVhttp://uk.linkedin.com/pub/alan-frisch/4b/3b9/985
p1194
aVhttp://ca.linkedin.com/pub/n-balakrishnan/11/836/35b
p1195
aVhttp://ca.linkedin.com/pub/mario-marchand/13/609/504
p1196
aVhttp://ie.linkedin.com/pub/fionn-murtagh/3/190/aba
p1197
aVhttp://cn.linkedin.com/pub/wei-jiang/16/3b7/830
p1198
aVhttp://www.linkedin.com/pub/wei-jiang/52/66a/490
p1199
aVhttp://au.linkedin.com/pub/matthew-roughan/5/912/a07
p1200
aVhttp://ca.linkedin.com/pub/marin-litoiu/7/67a/923
p1201
aVhttp://sg.linkedin.com/pub/tat-jen-cham/0/72a/265
p1202
aVhttp://ca.linkedin.com/pub/fahiem-bacchus/15/819/3b4
p1203
aVhttp://www.linkedin.com/pub/keith-sklower/20/3a/3a4
p1204
aVhttp://il.linkedin.com/pub/nadav-golbandi/0/999/284
p1205
aVhttp://fi.linkedin.com/pub/matti-rossi/4/452/a28
p1206
aVhttp://www.linkedin.com/pub/chandra-krintz/4/647/2ab
p1207
aVhttp://cn.linkedin.com/pub/zheng-zhang/10/709/a3a
p1208
aVhttp://cn.linkedin.com/pub/zheng-zhang/10/709/a3a
p1209
aVhttp://www.linkedin.com/pub/sushil-prasad/4/105/b15
p1210
aVhttp://fi.linkedin.com/pub/jarkko-kari/a/305/614
p1211
aVhttp://uk.linkedin.com/pub/alan-rector/8/18a/470
p1212
aVhttp://www.linkedin.com/pub/zi-yang/11/862/831
p1213
aVhttp://ch.linkedin.com/pub/istvan-szita/59/7bb/969
p1214
aVhttp://cn.linkedin.com/pub/jingdong-wang/13/707/4a5
p1215
aVhttp://www.linkedin.com/pub/michael-kearns/7/133/95
p1216
aVhttp://www.linkedin.com/pub/george-ferguson/20/a68/13a
p1217
aVhttp://www.linkedin.com/pub/mario-gerla/4/4b6/153
p1218
aVhttp://www.linkedin.com/pub/william-bialek/5/618/17a
p1219
aVhttp://www.linkedin.com/pub/ross-shachter/30/700/711
p1220
aVhttp://www.linkedin.com/pub/ivet-bahar/4/102/322
p1221
aVhttp://www.linkedin.com/pub/qi-zhao/21/603/2bb
p1222
aVhttp://uk.linkedin.com/pub/mark-rouncefield/25/891/83
p1223
aVhttp://www.linkedin.com/pub/john-byers/10/872/810
p1224
aVhttp://www.linkedin.com/pub/yoav-shoham/22/560/a79
p1225
aVhttp://uk.linkedin.com/pub/filip-radlinski/4/629/b56
p1226
aVhttp://www.linkedin.com/pub/brian-amento/3/a92/247
p1227
aVhttp://www.linkedin.com/pub/jean-walrand/3/a37/4b0
p1228
aVhttp://ua.linkedin.com/pub/vadim-ermolayev/10/ab9/a95
p1229
aVhttp://uk.linkedin.com/pub/dimitrios-s-nikolopoulos/8/b03/b36
p1230
aVhttp://cn.linkedin.com/pub/rudolf-fleischer/14/376/820
p1231
aVhttp://www.linkedin.com/pub/jing-hua/6/395/6a
p1232
aVhttp://sa.linkedin.com/pub/mayez-al-mouhamed/40/bb5/a94
p1233
aVhttp://www.linkedin.com/pub/ming-chien-shan/7/90b/19b
p1234
aVhttp://cn.linkedin.com/pub/min-ling-zhang/15/423/a2
p1235
aVhttp://www.linkedin.com/pub/raj-rajkumar/4/326/942
p1236
aVhttp://www.linkedin.com/pub/patrick-mcdaniel/4/608/60b
p1237
aVhttp://www.linkedin.com/pub/ted-biggerstaff/5/853/697
p1238
aVhttp://www.linkedin.com/pub/zhigang-deng/12/6b3/982
p1239
aVhttp://www.linkedin.com/pub/david-wolpert/5/994/324
p1240
aVhttp://www.linkedin.com/pub/zhengzhu-feng/9/45a/b1a
p1241
aVhttp://ca.linkedin.com/pub/mourad-debbabi/4/5a8/1a2
p1242
aVhttp://ca.linkedin.com/pub/jian-pei/9/a16/69
p1243
aVhttp://uk.linkedin.com/pub/adrian-hilton/3/939/3a7
p1244
aVhttp://uk.linkedin.com/pub/john-stell/6/473/923
p1245
aVhttp://www.linkedin.com/pub/rajiv-dewan/6/446/463
p1246
aVhttp://www.linkedin.com/pub/soumitra-dutta/6/441/b10
p1247
aVhttp://www.linkedin.com/pub/tuomas-sandholm/5/104/15b
p1248
aVhttp://www.linkedin.com/pub/vidhyashankar-venkataraman/9/946/84
p1249
aVhttp://cn.linkedin.com/pub/tie-yan-liu/31/7a1/ab0
p1250
aVhttp://be.linkedin.com/pub/willy-herroelen/7/95b/142
p1251
aVhttp://ca.linkedin.com/pub/stavros-konstantinidis/6/404/a39
p1252
aVhttp://uk.linkedin.com/pub/francesca-toni/4/46b/4bb
p1253
aVhttp://au.linkedin.com/pub/olivera-marjanovic/6/b47/5bb
p1254
aVhttp://hk.linkedin.com/pub/chong-wah-ngo/6/439/992
p1255
aVhttp://in.linkedin.com/pub/shankar-subramaniam/56/b82/bb4
p1256
aVhttp://in.linkedin.com/pub/shankar-subramaniam/56/b82/bb4
p1257
aVhttp://il.linkedin.com/pub/opher-etzion/1/153/a19
p1258
aVhttp://www.linkedin.com/pub/james-hendler/24/5b7/b84
p1259
aVhttp://www.linkedin.com/pub/andrew-barto/13/a98/915
p1260
aVhttp://www.linkedin.com/pub/mohsen-bayati/7/886/44
p1261
aVhttp://www.linkedin.com/pub/krishna-kant/a/445/6a0
p1262
aVhttp://il.linkedin.com/pub/leo-joskowicz/15/339/271
p1263
aVhttp://ca.linkedin.com/pub/sophie-d-amours/7/562/821
p1264
aVhttp://www.linkedin.com/pub/arpita-ghosh/50/255/281
p1265
aVhttp://ca.linkedin.com/pub/allan-borodin/38/a64/aa5
p1266
aVhttp://cn.linkedin.com/pub/yu-zheng/2/364/748
p1267
aVhttp://tw.linkedin.com/pub/chin-liang-wang/2a/121/670
p1268
aVhttp://ca.linkedin.com/pub/bettina-kemme/47/15b/631
p1269
aVhttp://tw.linkedin.com/pub/tzung-shi-chen/26/9a9/24a
p1270
aVhttp://www.linkedin.com/pub/rajiv-ramaswami/4/570/b36
p1271
aVhttp://uk.linkedin.com/pub/martin-neil/0/49a/1aa
p1272
aVhttp://be.linkedin.com/pub/marc-swerts/5/783/5b6
p1273
aVhttp://uk.linkedin.com/pub/jan-kautz/4/826/466
p1274
aVhttp://uk.linkedin.com/pub/alex-bateman/8/91/647
p1275
aVhttp://uk.linkedin.com/pub/tim-hubbard/3/735/657
p1276
aVhttp://uk.linkedin.com/pub/wamberto-vasconcelos/3/a87/b13
p1277
aVhttp://www.linkedin.com/pub/osman-balci/b/247/11b
p1278
aVhttp://www.linkedin.com/pub/ugur-kuter/5/732/140
p1279
aVhttp://www.linkedin.com/pub/andrea-goldsmith/7/11a/28
p1280
aVhttp://au.linkedin.com/pub/yi-mu/32/507/229
p1281
aVhttp://www.linkedin.com/pub/bhaskar-dasgupta/7/883/683
p1282
aVhttp://ca.linkedin.com/pub/holger-hoos/4/795/3a3
p1283
aVhttp://www.linkedin.com/pub/hong-cheng/4/b03/18
p1284
aVhttp://si.linkedin.com/pub/franjo-pernus/11/57/454
p1285
aVhttp://www.linkedin.com/pub/austen-mcdonald/6/356/839
p1286
aVhttp://www.linkedin.com/pub/jian-chen/12/58a/24b
p1287
aVhttp://www.linkedin.com/pub/jian-chen/a/938/b75
p1288
aVhttp://www.linkedin.com/pub/jian-chen/2/4ab/417
p1289
aVhttp://www.linkedin.com/pub/jian-chen/27/518/555
p1290
aVhttp://uk.linkedin.com/pub/stewart-robinson/14/764/162
p1291
aVhttp://www.linkedin.com/pub/rakesh-vohra/11/9a3/670
p1292
aVhttp://www.linkedin.com/pub/robert-givan/4/a94/b86
p1293
aVhttp://cn.linkedin.com/pub/yu-zhao/2b/662/a9
p1294
aVhttp://uk.linkedin.com/pub/anna-korhonen/5/a9b/534
p1295
aVhttp://uk.linkedin.com/pub/richard-paige/3/9/412
p1296
aVhttp://www.linkedin.com/pub/heiko-hoffmann/13/b39/596
p1297
aVhttp://www.linkedin.com/pub/jay-sethuraman/33/565/b29
p1298
aVhttp://www.linkedin.com/pub/biplab-sikdar/6/0/1b4
p1299
aVhttp://www.linkedin.com/pub/gina-anne-levow/9/599/736
p1300
aVhttp://www.linkedin.com/pub/bernard-levy/6/a46/394
p1301
aVhttp://ca.linkedin.com/pub/simon-prince/3/883/402
p1302
aVhttp://ca.linkedin.com/pub/simon-prince/3/883/402
p1303
aVhttp://il.linkedin.com/pub/naftali-tishby/16/486/63a
p1304
aVhttp://ca.linkedin.com/pub/fayez-gebali/1b/7a2/6a3
p1305
aVhttp://www.linkedin.com/pub/wei-wei/4/179/157
p1306
aVhttp://www.linkedin.com/pub/wei-wei/4/179/157
p1307
aVhttp://www.linkedin.com/pub/gio-wiederhold/18/408/82
p1308
aVhttp://www.linkedin.com/pub/ram-chillarege/0/145/204
p1309
aVhttp://hk.linkedin.com/pub/qiang-yang/2b/2b6/427
p1310
aVhttp://fi.linkedin.com/pub/mikko-siponen/1a/3b4/873
p1311
aVhttp://www.linkedin.com/pub/joel-emer/6/509/763
p1312
aVhttp://www.linkedin.com/pub/janusz-rajski/2/931/8b5
p1313
aVhttp://ca.linkedin.com/pub/jonathan-schaeffer/5/801/331
p1314
aVhttp://uk.linkedin.com/pub/lajos-hanzo/13/782/a44
p1315
aVhttp://www.linkedin.com/pub/gunnar-carlsson/7/372/17b
p1316
aVhttp://uk.linkedin.com/pub/gianluca-tempesti/3/43a/195
p1317
aVhttp://ca.linkedin.com/pub/brian-harrington/46/ba8/1a4
p1318
aVhttp://www.linkedin.com/pub/ian-buck/15/13/192
p1319
aVhttp://www.linkedin.com/pub/tzi-cker-chiueh/3/982/40b
p1320
aVhttp://ca.linkedin.com/pub/pierre-l-ecuyer/16/70a/bbb
p1321
aVhttp://www.linkedin.com/pub/rajarshi-guha/4/972/789
p1322
aVhttp://www.linkedin.com/pub/rohit-khandekar/19/ba8/111
p1323
aVhttp://uk.linkedin.com/pub/keith-wansbrough/7/285/296
p1324
aVhttp://www.linkedin.com/pub/kar-han-tan/4/316/993
p1325
aVhttp://www.linkedin.com/pub/paul-maglio/5/837/604
p1326
aVhttp://uk.linkedin.com/pub/chris-price/a/735/317
p1327
aVhttp://ca.linkedin.com/pub/dorina-petriu/4/962/78b
p1328
aVhttp://www.linkedin.com/pub/victor-raskin/0/88/b55
p1329
aVhttp://tw.linkedin.com/pub/kuei-ping-shih/13/356/778
p1330
aVhttp://www.linkedin.com/pub/carole-hafner/8/639/b4b
p1331
aVhttp://www.linkedin.com/pub/glenn-fung/3/a72/16b
p1332
aVhttp://fi.linkedin.com/pub/poika-isokoski/33/514/4aa
p1333
aVhttp://www.linkedin.com/pub/nihar-jindal/24/188/932
p1334
aVhttp://www.linkedin.com/pub/yan-yang/14/83/92a
p1335
aVhttp://www.linkedin.com/pub/yuri-gurevich/30/432/a7
p1336
aVhttp://ca.linkedin.com/pub/mohamed-hefeeda/5/544/71a
p1337
aVhttp://www.linkedin.com/pub/ali-h-sayed/b/2b4/b38
p1338
aVhttp://uk.linkedin.com/pub/andrew-wilson/21/152/a40
p1339
aVhttp://ca.linkedin.com/pub/rongxing-lu/2b/925/524
p1340
aVhttp://si.linkedin.com/pub/ivan-bratko/10/869/214
p1341
aVhttp://si.linkedin.com/pub/ivan-bratko/4/488/946
p1342
aVhttp://sg.linkedin.com/pub/xiaokui-xiao/9/12/2a4
p1343
aVhttp://www.linkedin.com/pub/eddie-kohler/3a/b41/640
p1344
aVhttp://www.linkedin.com/pub/ruoming-jin/5/b24/19a
p1345
aVhttp://sg.linkedin.com/pub/jianxin-wu/56/820/a26
p1346
aVhttp://cn.linkedin.com/pub/chao-liu/42/a8a/aa0
p1347
aVhttp://uk.linkedin.com/pub/maria-fasli/3/b23/315
p1348
aVhttp://www.linkedin.com/pub/david-millen/24/235/80
p1349
aVhttp://il.linkedin.com/pub/michael-heymann/14/aaa/76b
p1350
aVhttp://tw.linkedin.com/pub/hao-ran-liu/20/83/8bb
p1351
aVhttp://uk.linkedin.com/pub/antonio-criminisi/a/41a/5ba
p1352
aVhttp://au.linkedin.com/pub/zhouyu-fu/29/7b3/b61
p1353
aVhttp://cn.linkedin.com/pub/qi-li/5/487/238
p1354
aVhttp://uk.linkedin.com/pub/bashir-m-al-hashimi/6/993/a87
p1355
aVhttp://www.linkedin.com/pub/ahmed-elgammal/11/679/716
p1356
aVhttp://www.linkedin.com/pub/alice-parker/3/bb6/696
p1357
aVhttp://www.linkedin.com/pub/lin-huang/1b/a1a/621
p1358
aVhttp://www.linkedin.com/pub/sandip-ray/a/216/356
p1359
aVhttp://www.linkedin.com/pub/laura-dabbish/7/486/942
p1360
aVhttp://www.linkedin.com/pub/neil-vachharajani/4/1aa/6a6
p1361
aVhttp://www.linkedin.com/pub/vojin-g-oklobdzija/4/933/1a2
p1362
aVhttp://www.linkedin.com/pub/sridhar-machiraju/4/805/684
p1363
aVhttp://ca.linkedin.com/pub/andreas-moshovos/14/30a/121
p1364
aVhttp://tw.linkedin.com/pub/yung-yu-chuang/8/57a/507
p1365
aVhttp://in.linkedin.com/pub/sarabjot-singh-anand/b/6aa/389
p1366
aVhttp://ca.linkedin.com/pub/ravi-mazumdar/6/9a9/141
p1367
aVhttp://cn.linkedin.com/pub/xiaoying-bai/11/863/409
p1368
aVhttp://fi.linkedin.com/pub/ari-visa/47/8a3/45
p1369
aVhttp://www.linkedin.com/pub/barbara-di-eugenio/11/718/182
p1370
aVhttp://il.linkedin.com/pub/reuven-cohen/5b/3a/960
p1371
aVhttp://www.linkedin.com/pub/ralf-herbrich/4/832/28a
p1372
aVhttp://www.linkedin.com/pub/saugata-basu/9/586/a98
p1373
aVhttp://www.linkedin.com/pub/tom-fawcett/0/a1/59
p1374
aVhttp://www.linkedin.com/pub/paul-salama/4/528/982
p1375
aVhttp://ca.linkedin.com/pub/brian-silverman/6/5b9/722
p1376
aVhttp://www.linkedin.com/pub/glenn-reinman/9/344/575
p1377
aVhttp://www.linkedin.com/pub/peter-polson/6/888/7a
p1378
aVhttp://uk.linkedin.com/pub/victor-khomenko/5/384/379
p1379
aVhttp://www.linkedin.com/pub/jonathan-ledlie/8/630/16b
p1380
aVhttp://cn.linkedin.com/pub/kai-tang/24/1a3/699
p1381
aVhttp://www.linkedin.com/pub/wei-li/8/28a/6b0
p1382
aVhttp://sg.linkedin.com/pub/teng-joon-lim/5/843/58
p1383
aVhttp://uk.linkedin.com/pub/rajeev-raman/5/5aa/b20
p1384
aVhttp://www.linkedin.com/pub/hong-yan/15/308/4b3
p1385
aVhttp://au.linkedin.com/pub/jian-yang/5/794/172
p1386
aVhttp://www.linkedin.com/pub/bin-gao/21/1b1/159
p1387
aVhttp://www.linkedin.com/pub/richard-goodwin/5/b4/31a
p1388
aVhttp://au.linkedin.com/pub/john-roddick/13/5b0/163
p1389
aVhttp://www.linkedin.com/pub/yann-lecun/0/99/b9
p1390
aVhttp://ie.linkedin.com/pub/nour-ali/10/95a/792
p1391
aVhttp://ca.linkedin.com/pub/charles-wang/3/82a/b91
p1392
aVhttp://www.linkedin.com/pub/anil-nigam/16/244/407
p1393
aVhttp://cn.linkedin.com/pub/xiaogang-jin/3a/2a4/531
p1394
aVhttp://www.linkedin.com/pub/flavio-chierichetti/1b/903/589
p1395
aVhttp://uk.linkedin.com/pub/colin-higgins/4/375/499
p1396
aVhttp://fi.linkedin.com/pub/keijo-heljanko/4/909/352
p1397
aVhttp://il.linkedin.com/pub/tamar-domany/13/812/937
p1398
aVhttp://uk.linkedin.com/pub/jon-timmis/9/79/a32
p1399
aVhttp://ca.linkedin.com/pub/jean-vaucher/16/187/6b8
p1400
aVhttp://www.linkedin.com/pub/usman-roshan/14/500/a13
p1401
aVhttp://www.linkedin.com/pub/greg-hamerly/a/740/876
p1402
aVhttp://www.linkedin.com/pub/rainer-steinwandt/12/494/28
p1403
aVhttp://cn.linkedin.com/pub/xinbo-gao/24/a22/151
p1404
aVhttp://www.linkedin.com/pub/datong-chen/3/108/aa1
p1405
aVhttp://ae.linkedin.com/pub/joonsang-baek/4/637/69b
p1406
aVhttp://www.linkedin.com/pub/tolga-tasdizen/4/b88/677
p1407
aVhttp://be.linkedin.com/pub/ronald-rousseau/5/768/174
p1408
aVhttp://be.linkedin.com/pub/ronald-rousseau/5/768/174
p1409
aVhttp://be.linkedin.com/pub/ronald-rousseau/5/768/174
p1410
aVhttp://be.linkedin.com/pub/ronald-rousseau/5/768/174
p1411
aVhttp://www.linkedin.com/pub/david-cohen/13/6b6/47b
p1412
aVhttp://www.linkedin.com/pub/david-pynadath/4/891/315
p1413
aVhttp://sg.linkedin.com/pub/beng-chin-ooi/4/63/34b
p1414
aVhttp://au.linkedin.com/pub/mehmet-orgun/5/262/536
p1415
aVhttp://www.linkedin.com/pub/dursun-delen/29/907/278
p1416
aVhttp://il.linkedin.com/pub/elad-hazan/4/6b6/573
p1417
aVhttp://cn.linkedin.com/pub/ying-liu/b/599/621
p1418
aVhttp://cn.linkedin.com/pub/ying-liu/b/599/621
p1419
aVhttp://il.linkedin.com/pub/koby-crammer/5/bb/141
p1420
aVhttp://www.linkedin.com/pub/jason-flinn/8/62a/567
p1421
aVhttp://sg.linkedin.com/pub/hweehwa-pang/26/946/5a3
p1422
aVhttp://eg.linkedin.com/pub/alaa-sheta/17/776/305
p1423
aVhttp://cn.linkedin.com/pub/xin-jing-wang/14/248/437
p1424
aVhttp://www.linkedin.com/pub/nancy-lynch/1b/6a5/a5a
p1425
aVhttp://gr.linkedin.com/pub/apostolos-gkamas/4/24b/139
p1426
aVhttp://au.linkedin.com/pub/nisheeth-shrivastava/8/906/176
p1427
aVhttp://ca.linkedin.com/pub/sridhar-srinivasan/14/550/6b3
p1428
aVhttp://ca.linkedin.com/pub/sridhar-srinivasan/14/550/6b3
p1429
aVhttp://tw.linkedin.com/pub/pao-ann-hsiung/7/379/a3a
p1430
aVhttp://fi.linkedin.com/pub/jari-veijalainen/5/214/454
p1431
aVhttp://www.linkedin.com/pub/dimitrios-koutsonikolas/6/967/a89
p1432
aVhttp://www.linkedin.com/pub/yong-zhao/10/661/310
p1433
aVhttp://www.linkedin.com/pub/yu-wang/4/506/a51
p1434
a.